(dp0
S'METTS MARK'
p1
(dp2
S'to_messages'
p3
I807
sS'deferral_payments'
p4
S'NaN'
p5
sS'expenses'
p6
I94299
sS'poi'
p7
I00
sS'deferred_income'
p8
g5
sS'email_address'
p9
S'mark.metts@enron.com'
p10
sS'long_term_incentive'
p11
g5
sS'total_stock_salary_ratio'
p12
F1.5994565157960348
sS'restricted_stock_deferred'
p13
g5
sS'shared_receipt_with_poi'
p14
I702
sS'loan_advances'
p15
g5
sS'from_messages'
p16
I29
sS'other'
p17
I1740
sS'msg_ratio_from'
p18
F0.034482758620689655
sS'director_fees'
p19
g5
sS'msg_ratio_to'
p20
F0.04708798017348203
sS'bonus'
p21
I600000
sS'total_stock_value'
p22
I585062
sS'from_poi_to_this_person'
p23
I38
sS'from_this_person_to_poi'
p24
I1
sS'restricted_stock'
p25
I585062
sS'salary'
p26
I365788
sS'total_payments'
p27
I1061827
sS'exercised_stock_options'
p28
g5
ssS'BAXTER JOHN C'
p29
(dp30
g3
g5
sg4
I1295738
sg6
I11200
sg7
I00
sg8
I-1386055
sg9
g5
sg11
I1586055
sg12
F39.77228923781926
sg13
g5
sg14
g5
sg15
g5
sg16
g5
sg17
I2660303
sg18
F0.0
sg19
g5
sg20
F0.0
sg21
I1200000
sg22
I10623258
sg23
g5
sg24
g5
sg25
I3942714
sg26
I267102
sg27
I5634343
sg28
I6680544
ssS'ELLIOTT STEVEN'
p31
(dp32
g3
g5
sg4
g5
sg6
I78552
sg7
I00
sg8
I-400729
sg9
S'steven.elliott@enron.com'
p33
sg11
g5
sg12
F39.07041025851024
sg13
g5
sg14
g5
sg15
g5
sg16
g5
sg17
I12961
sg18
F0.0
sg19
g5
sg20
F0.0
sg21
I350000
sg22
I6678735
sg23
g5
sg24
g5
sg25
I1788391
sg26
I170941
sg27
I211725
sg28
I4890344
ssS'CORDES WILLIAM R'
p34
(dp35
g3
I764
sg4
g5
sg6
g5
sg7
I00
sg8
g5
sg9
S'bill.cordes@enron.com'
p36
sg11
g5
sg12
F0.0
sg13
g5
sg14
I58
sg15
g5
sg16
I12
sg17
g5
sg18
F0.0
sg19
g5
sg20
F0.013089005235602094
sg21
g5
sg22
I1038185
sg23
I10
sg24
I0
sg25
I386335
sg26
g5
sg27
g5
sg28
I651850
ssS'HANNON KEVIN P'
p37
(dp38
g3
I1045
sg4
g5
sg6
I34039
sg7
I01
sg8
I-3117011
sg9
S'kevin.hannon@enron.com'
p39
sg11
I1617011
sg12
F26.269004862449805
sg13
g5
sg14
I1035
sg15
g5
sg16
I32
sg17
I11350
sg18
F0.65625
sg19
g5
sg20
F0.03062200956937799
sg21
I1500000
sg22
I6391065
sg23
I32
sg24
I21
sg25
I853064
sg26
I243293
sg27
I288682
sg28
I5538001
ssS'MORDAUNT KRISTINA M'
p40
(dp41
g3
g5
sg4
g5
sg6
I35018
sg7
I00
sg8
g5
sg9
S'kristina.mordaunt@enron.com'
p42
sg11
g5
sg12
F0.7806644127700838
sg13
g5
sg14
g5
sg15
g5
sg16
g5
sg17
I1411
sg18
F0.0
sg19
g5
sg20
F0.0
sg21
I325000
sg22
I208510
sg23
g5
sg24
g5
sg25
I208510
sg26
I267093
sg27
I628522
sg28
g5
ssS'MEYER ROCKFORD G'
p43
(dp44
g3
I232
sg4
I1848227
sg6
g5
sg7
I00
sg8
g5
sg9
S'rockford.meyer@enron.com'
p45
sg11
g5
sg12
F0.0
sg13
g5
sg14
I22
sg15
g5
sg16
I28
sg17
g5
sg18
F0.0
sg19
g5
sg20
F0.0
sg21
g5
sg22
I955873
sg23
I0
sg24
I0
sg25
I462384
sg26
g5
sg27
I1848227
sg28
I493489
ssS'MCMAHON JEFFREY'
p46
(dp47
g3
I2355
sg4
g5
sg6
I137108
sg7
I00
sg8
g5
sg9
S'jeffrey.mcmahon@enron.com'
p48
sg11
I694862
sg12
F4.488767654299659
sg13
g5
sg14
I2228
sg15
g5
sg16
I48
sg17
I297353
sg18
F0.5416666666666666
sg19
g5
sg20
F0.024628450106157114
sg21
I2600000
sg22
I1662855
sg23
I58
sg24
I26
sg25
I558801
sg26
I370448
sg27
I4099771
sg28
I1104054
ssS'HORTON STANLEY C'
p49
(dp50
g3
I2350
sg4
I3131860
sg6
g5
sg7
I00
sg8
g5
sg9
S'stanley.horton@enron.com'
p51
sg11
g5
sg12
F0.0
sg13
g5
sg14
I1074
sg15
g5
sg16
I1073
sg17
g5
sg18
F0.013979496738117428
sg19
g5
sg20
F0.01872340425531915
sg21
g5
sg22
I7256648
sg23
I44
sg24
I15
sg25
I2046079
sg26
g5
sg27
I3131860
sg28
I5210569
ssS'PIPER GREGORY F'
p52
(dp53
g3
I1238
sg4
I1130036
sg6
I43057
sg7
I00
sg8
I-33333
sg9
S'greg.piper@enron.com'
p54
sg11
g5
sg12
F4.466413991506461
sg13
I-409554
sg14
I742
sg15
g5
sg16
I222
sg17
I778
sg18
F0.21621621621621623
sg19
g5
sg20
F0.049273021001615507
sg21
I400000
sg22
I880290
sg23
I61
sg24
I48
sg25
I409554
sg26
I197091
sg27
I1737629
sg28
I880290
ssS'HUMPHREY GENE E'
p55
(dp56
g3
I128
sg4
I2964506
sg6
I4994
sg7
I00
sg8
g5
sg9
S'gene.humphrey@enron.com'
p57
sg11
g5
sg12
F17.462501147455708
sg13
g5
sg14
I119
sg15
g5
sg16
I17
sg17
g5
sg18
F1.0
sg19
g5
sg20
F0.078125
sg21
g5
sg22
I2282768
sg23
I10
sg24
I17
sg25
g5
sg26
I130724
sg27
I3100224
sg28
I2282768
ssS'UMANOFF ADAM S'
p58
(dp59
g3
I111
sg4
g5
sg6
I53122
sg7
I00
sg8
g5
sg9
S'adam.umanoff@enron.com'
p60
sg11
g5
sg12
F0.0
sg13
g5
sg14
I41
sg15
g5
sg16
I18
sg17
g5
sg18
F0.0
sg19
g5
sg20
F0.10810810810810811
sg21
I788750
sg22
g5
sg23
I12
sg24
I0
sg25
g5
sg26
I288589
sg27
I1130461
sg28
g5
ssS'BLACHMAN JEREMY M'
p61
(dp62
g3
I2475
sg4
g5
sg6
I84208
sg7
I00
sg8
g5
sg9
S'jeremy.blachman@enron.com'
p63
sg11
I831809
sg12
F3.839747974218052
sg13
g5
sg14
I2326
sg15
g5
sg16
I14
sg17
I272
sg18
F0.14285714285714285
sg19
g5
sg20
F0.010101010101010102
sg21
I850000
sg22
I954354
sg23
I25
sg24
I2
sg25
I189041
sg26
I248546
sg27
I2014835
sg28
I765313
ssS'SUNDE MARTIN'
p64
(dp65
g3
I2647
sg4
g5
sg6
g5
sg7
I00
sg8
g5
sg9
S'marty.sunde@enron.com'
p66
sg11
I476451
sg12
F2.71440000621393
sg13
g5
sg14
I2565
sg15
g5
sg16
I38
sg17
I111122
sg18
F0.34210526315789475
sg19
g5
sg20
F0.013978088401964487
sg21
I700000
sg22
I698920
sg23
I37
sg24
I13
sg25
I698920
sg26
I257486
sg27
I1545059
sg28
g5
ssS'GIBBS DANA R'
p67
(dp68
g3
I169
sg4
I504610
sg6
g5
sg7
I00
sg8
g5
sg9
S'dana.gibbs@enron.com'
p69
sg11
I461912
sg12
F0.0
sg13
g5
sg14
I23
sg15
g5
sg16
I12
sg17
g5
sg18
F0.0
sg19
g5
sg20
F0.0
sg21
g5
sg22
I2218275
sg23
I0
sg24
I0
sg25
g5
sg26
g5
sg27
I966522
sg28
I2218275
ssS'LOWRY CHARLES P'
p70
(dp71
g3
g5
sg4
g5
sg6
g5
sg7
I00
sg8
g5
sg9
g5
sg11
g5
sg12
F0.0
sg13
I-153686
sg14
g5
sg15
g5
sg16
g5
sg17
g5
sg18
F0.0
sg19
g5
sg20
F0.0
sg21
g5
sg22
I372205
sg23
g5
sg24
g5
sg25
I153686
sg26
g5
sg27
g5
sg28
I372205
ssS'COLWELL WESLEY'
p72
(dp73
g3
I1758
sg4
I27610
sg6
I16514
sg7
I01
sg8
I-144062
sg9
S'wes.colwell@enron.com'
p74
sg11
g5
sg12
F2.4198972766529656
sg13
g5
sg14
I1132
sg15
g5
sg16
I40
sg17
I101740
sg18
F0.275
sg19
g5
sg20
F0.13651877133105803
sg21
I1200000
sg22
I698242
sg23
I240
sg24
I11
sg25
I698242
sg26
I288542
sg27
I1490344
sg28
g5
ssS'MULLER MARK S'
p75
(dp76
g3
I136
sg4
I842924
sg6
g5
sg7
I00
sg8
I-719000
sg9
S's..muller@enron.com'
p77
sg11
I1725545
sg12
F5.630142974083464
sg13
g5
sg14
I114
sg15
g5
sg16
I16
sg17
I947
sg18
F0.0
sg19
g5
sg20
F0.08823529411764706
sg21
I1100000
sg22
I1416848
sg23
I12
sg24
I0
sg25
I360528
sg26
I251654
sg27
I3202070
sg28
I1056320
ssS'JACKSON CHARLENE R'
p78
(dp79
g3
I258
sg4
g5
sg6
I10181
sg7
I00
sg8
g5
sg9
S'charlene.jackson@enron.com'
p80
sg11
g5
sg12
F2.515040303855724
sg13
g5
sg14
I117
sg15
g5
sg16
I56
sg17
I2435
sg18
F0.3392857142857143
sg19
g5
sg20
F0.09689922480620156
sg21
I250000
sg22
I725735
sg23
I25
sg24
I19
sg25
I540672
sg26
I288558
sg27
I551174
sg28
I185063
ssS'WESTFAHL RICHARD K'
p81
(dp82
g3
g5
sg4
g5
sg6
I51870
sg7
I00
sg8
I-10800
sg9
S'dick.westfahl@enron.com'
p83
sg11
I256191
sg12
F6.038685993975903
sg13
g5
sg14
g5
sg15
g5
sg16
g5
sg17
I401130
sg18
F0.0
sg19
g5
sg20
F0.0
sg21
g5
sg22
I384930
sg23
g5
sg24
g5
sg25
I384930
sg26
I63744
sg27
I762135
sg28
g5
ssS'WALTERS GARETH W'
p84
(dp85
g3
g5
sg4
I53625
sg6
I33785
sg7
I00
sg8
g5
sg9
g5
sg11
g5
sg12
F0.0
sg13
g5
sg14
g5
sg15
g5
sg16
g5
sg17
g5
sg18
F0.0
sg19
g5
sg20
F0.0
sg21
g5
sg22
I1030329
sg23
g5
sg24
g5
sg25
g5
sg26
g5
sg27
I87410
sg28
I1030329
ssS'WALLS JR ROBERT H'
p86
(dp87
g3
I671
sg4
g5
sg6
I50936
sg7
I00
sg8
g5
sg9
S'rob.walls@enron.com'
p88
sg11
I540751
sg12
F16.5195902445035
sg13
g5
sg14
I215
sg15
g5
sg16
I146
sg17
I2
sg18
F0.0
sg19
g5
sg20
F0.02533532041728763
sg21
I850000
sg22
I5898997
sg23
I17
sg24
I0
sg25
I1552453
sg26
I357091
sg27
I1798780
sg28
I4346544
ssS'KITCHEN LOUISE'
p89
(dp90
g3
I8305
sg4
g5
sg6
I5774
sg7
I00
sg8
g5
sg9
S'louise.kitchen@enron.com'
p91
sg11
g5
sg12
F2.0156902763758002
sg13
g5
sg14
I3669
sg15
g5
sg16
I1728
sg17
I93925
sg18
F0.11226851851851852
sg19
g5
sg20
F0.030222757375075255
sg21
I3100000
sg22
I547143
sg23
I251
sg24
I194
sg25
I466101
sg26
I271442
sg27
I3471141
sg28
I81042
ssS'CHAN RONNIE'
p92
(dp93
g3
g5
sg4
g5
sg6
g5
sg7
I00
sg8
I-98784
sg9
g5
sg11
g5
sg12
F0.0
sg13
I-32460
sg14
g5
sg15
g5
sg16
g5
sg17
g5
sg18
F0.0
sg19
I98784
sg20
F0.0
sg21
g5
sg22
g5
sg23
g5
sg24
g5
sg25
I32460
sg26
g5
sg27
g5
sg28
g5
ssS'BELFER ROBERT'
p94
(dp95
g3
g5
sg4
I-102500
sg6
g5
sg7
I00
sg8
g5
sg9
g5
sg11
g5
sg12
F0.0
sg13
I44093
sg14
g5
sg15
g5
sg16
g5
sg17
g5
sg18
F0.0
sg19
I3285
sg20
F0.0
sg21
g5
sg22
I-44093
sg23
g5
sg24
g5
sg25
g5
sg26
g5
sg27
I102500
sg28
I3285
ssS'SHANKMAN JEFFREY A'
p96
(dp97
g3
I3221
sg4
g5
sg6
I178979
sg7
I00
sg8
g5
sg9
S'jeffrey.shankman@enron.com'
p98
sg11
I554422
sg12
F6.813439216073132
sg13
g5
sg14
I1730
sg15
g5
sg16
I2681
sg17
I1191
sg18
F0.030958597538232
sg19
g5
sg20
F0.029183483390251473
sg21
I2000000
sg22
I2072035
sg23
I94
sg24
I83
sg25
I630137
sg26
I304110
sg27
I3038702
sg28
I1441898
ssS'WODRASKA JOHN'
p99
(dp100
g3
g5
sg4
g5
sg6
g5
sg7
I00
sg8
g5
sg9
S'john.wodraska@enron.com'
p101
sg11
g5
sg12
F0.0
sg13
g5
sg14
g5
sg15
g5
sg16
g5
sg17
I189583
sg18
F0.0
sg19
g5
sg20
F0.0
sg21
g5
sg22
g5
sg23
g5
sg24
g5
sg25
g5
sg26
g5
sg27
I189583
sg28
g5
ssS'BERGSIEKER RICHARD P'
p102
(dp103
g3
I383
sg4
g5
sg6
I59175
sg7
I00
sg8
I-485813
sg9
S'rick.bergsieker@enron.com'
p104
sg11
I180250
sg12
F3.5080991049477976
sg13
g5
sg14
I233
sg15
g5
sg16
I59
sg17
I427316
sg18
F0.0
sg19
g5
sg20
F0.010443864229765013
sg21
I250000
sg22
I659249
sg23
I4
sg24
I0
sg25
I659249
sg26
I187922
sg27
I618850
sg28
g5
ssS'URQUHART JOHN A'
p105
(dp106
g3
g5
sg4
g5
sg6
I228656
sg7
I00
sg8
I-36666
sg9
g5
sg11
g5
sg12
F0.0
sg13
g5
sg14
g5
sg15
g5
sg16
g5
sg17
g5
sg18
F0.0
sg19
I36666
sg20
F0.0
sg21
g5
sg22
g5
sg23
g5
sg24
g5
sg25
g5
sg26
g5
sg27
I228656
sg28
g5
ssS'BIBI PHILIPPE A'
p107
(dp108
g3
I1607
sg4
g5
sg6
I38559
sg7
I00
sg8
g5
sg9
S'philippe.bibi@enron.com'
p109
sg11
I369721
sg12
F8.63108718548859
sg13
g5
sg14
I1336
sg15
g5
sg16
I40
sg17
I425688
sg18
F0.2
sg19
g5
sg20
F0.01431238332296204
sg21
I1000000
sg22
I1843816
sg23
I23
sg24
I8
sg25
I378082
sg26
I213625
sg27
I2047593
sg28
I1465734
ssS'RIEKER PAULA H'
p110
(dp111
g3
I1328
sg4
I214678
sg6
I33271
sg7
I01
sg8
I-100000
sg9
S'paula.rieker@enron.com'
p112
sg11
g5
sg12
F7.700157704022055
sg13
g5
sg14
I1258
sg15
g5
sg16
I82
sg17
I1950
sg18
F0.5853658536585366
sg19
g5
sg20
F0.02635542168674699
sg21
I700000
sg22
I1918887
sg23
I35
sg24
I48
sg25
I283649
sg26
I249201
sg27
I1099100
sg28
I1635238
ssS'WHALEY DAVID A'
p113
(dp114
g3
g5
sg4
g5
sg6
g5
sg7
I00
sg8
g5
sg9
g5
sg11
g5
sg12
F0.0
sg13
g5
sg14
g5
sg15
g5
sg16
g5
sg17
g5
sg18
F0.0
sg19
g5
sg20
F0.0
sg21
g5
sg22
I98718
sg23
g5
sg24
g5
sg25
g5
sg26
g5
sg27
g5
sg28
I98718
ssS'BECK SALLY W'
p115
(dp116
g3
I7315
sg4
g5
sg6
I37172
sg7
I00
sg8
g5
sg9
S'sally.beck@enron.com'
p117
sg11
g5
sg12
F0.544793152639087
sg13
g5
sg14
I2639
sg15
g5
sg16
I4343
sg17
I566
sg18
F0.08887865530739121
sg19
g5
sg20
F0.01968557758031442
sg21
I700000
sg22
I126027
sg23
I144
sg24
I386
sg25
I126027
sg26
I231330
sg27
I969068
sg28
g5
ssS'HAUG DAVID L'
p118
(dp119
g3
I573
sg4
g5
sg6
I475
sg7
I00
sg8
g5
sg9
S'david.haug@enron.com'
p120
sg11
g5
sg12
F0.0
sg13
g5
sg14
I471
sg15
g5
sg16
I19
sg17
g5
sg18
F0.3684210526315789
sg19
g5
sg20
F0.006980802792321117
sg21
g5
sg22
I2217299
sg23
I4
sg24
I7
sg25
I2217299
sg26
g5
sg27
I475
sg28
g5
ssS'ECHOLS JOHN B'
p121
(dp122
g3
g5
sg4
g5
sg6
I21530
sg7
I00
sg8
g5
sg9
S'john.echols@enron.com'
p123
sg11
I2234774
sg12
F5.536179319048534
sg13
g5
sg14
g5
sg15
g5
sg16
g5
sg17
I53775
sg18
F0.0
sg19
g5
sg20
F0.0
sg21
I200000
sg22
I1008941
sg23
g5
sg24
g5
sg25
I407503
sg26
I182245
sg27
I2692324
sg28
I601438
ssS'MENDELSOHN JOHN'
p124
(dp125
g3
g5
sg4
g5
sg6
I148
sg7
I00
sg8
I-103750
sg9
g5
sg11
g5
sg12
F0.0
sg13
g5
sg14
g5
sg15
g5
sg16
g5
sg17
g5
sg18
F0.0
sg19
I103750
sg20
F0.0
sg21
g5
sg22
g5
sg23
g5
sg24
g5
sg25
g5
sg26
g5
sg27
I148
sg28
g5
ssS'HICKERSON GARY J'
p126
(dp127
g3
I1320
sg4
g5
sg6
I98849
sg7
I00
sg8
g5
sg9
S'gary.hickerson@enron.com'
p128
sg11
I69223
sg12
F2.08272423366763
sg13
g5
sg14
I900
sg15
g5
sg16
I27
sg17
I1936
sg18
F0.037037037037037035
sg19
g5
sg20
F0.030303030303030304
sg21
I1700000
sg22
I441096
sg23
I40
sg24
I1
sg25
I441096
sg26
I211788
sg27
I2081796
sg28
g5
ssS'CLINE KENNETH W'
p129
(dp130
g3
g5
sg4
g5
sg6
g5
sg7
I00
sg8
g5
sg9
g5
sg11
g5
sg12
F0.0
sg13
I-472568
sg14
g5
sg15
g5
sg16
g5
sg17
g5
sg18
F0.0
sg19
g5
sg20
F0.0
sg21
g5
sg22
I189518
sg23
g5
sg24
g5
sg25
I662086
sg26
g5
sg27
g5
sg28
g5
ssS'LEWIS RICHARD'
p131
(dp132
g3
I952
sg4
g5
sg6
g5
sg7
I00
sg8
g5
sg9
S'richard.lewis@enron.com'
p133
sg11
g5
sg12
F0.0
sg13
g5
sg14
I739
sg15
g5
sg16
I26
sg17
g5
sg18
F0.0
sg19
g5
sg20
F0.01050420168067227
sg21
g5
sg22
I850477
sg23
I10
sg24
I0
sg25
g5
sg26
g5
sg27
g5
sg28
I850477
ssS'HAYES ROBERT E'
p134
(dp135
g3
I504
sg4
I7961
sg6
g5
sg7
I00
sg8
g5
sg9
S'robert.hayes@enron.com'
p136
sg11
g5
sg12
F0.0
sg13
g5
sg14
I50
sg15
g5
sg16
I12
sg17
g5
sg18
F0.0
sg19
g5
sg20
F0.031746031746031744
sg21
g5
sg22
I151418
sg23
I16
sg24
I0
sg25
I151418
sg26
g5
sg27
I7961
sg28
g5
ssS'MCCARTY DANNY J'
p137
(dp138
g3
I1433
sg4
g5
sg6
g5
sg7
I00
sg8
g5
sg9
S'danny.mccarty@enron.com'
p139
sg11
g5
sg12
F0.0
sg13
g5
sg14
I508
sg15
g5
sg16
I215
sg17
g5
sg18
F0.009302325581395349
sg19
g5
sg20
F0.017445917655268667
sg21
g5
sg22
I758931
sg23
I25
sg24
I2
sg25
I94556
sg26
g5
sg27
g5
sg28
I664375
ssS'KOPPER MICHAEL J'
p140
(dp141
g3
g5
sg4
g5
sg6
I118134
sg7
I01
sg8
g5
sg9
S'michael.kopper@enron.com'
p142
sg11
I602671
sg12
F4.391484808631105
sg13
g5
sg14
g5
sg15
g5
sg16
g5
sg17
I907502
sg18
F0.0
sg19
g5
sg20
F0.0
sg21
I800000
sg22
I985032
sg23
g5
sg24
g5
sg25
I985032
sg26
I224305
sg27
I2652612
sg28
g5
ssS'LEFF DANIEL P'
p143
(dp144
g3
I2822
sg4
g5
sg6
g5
sg7
I00
sg8
g5
sg9
S'dan.leff@enron.com'
p145
sg11
I1387399
sg12
F1.3170165043507485
sg13
g5
sg14
I2672
sg15
g5
sg16
I63
sg17
I3083
sg18
F0.2222222222222222
sg19
g5
sg20
F0.02374202693125443
sg21
I1000000
sg22
I360528
sg23
I67
sg24
I14
sg25
I360528
sg26
I273746
sg27
I2664228
sg28
g5
ssS'LAVORATO JOHN J'
p146
(dp147
g3
I7259
sg4
g5
sg6
I49537
sg7
I00
sg8
g5
sg9
S'john.lavorato@enron.com'
p148
sg11
I2035380
sg12
F15.229374454740515
sg13
g5
sg14
I3962
sg15
g5
sg16
I2585
sg17
I1552
sg18
F0.15899419729206962
sg19
g5
sg20
F0.07273729163796666
sg21
I0
sg22
I5167144
sg23
I528
sg24
I411
sg25
I1008149
sg26
I339288
sg27
I10425757
sg28
I4158995
ssS'BERBERIAN DAVID'
p149
(dp150
g3
g5
sg4
g5
sg6
I11892
sg7
I00
sg8
g5
sg9
S'david.berberian@enron.com'
p151
sg11
g5
sg12
F11.513496043069138
sg13
g5
sg14
g5
sg15
g5
sg16
g5
sg17
g5
sg18
F0.0
sg19
g5
sg20
F0.0
sg21
g5
sg22
I2493616
sg23
g5
sg24
g5
sg25
I869220
sg26
I216582
sg27
I228474
sg28
I1624396
ssS'DETMERING TIMOTHY J'
p152
(dp153
g3
g5
sg4
I875307
sg6
I52255
sg7
I00
sg8
I-775241
sg9
S'timothy.detmering@enron.com'
p154
sg11
I415657
sg12
F9.63356294536817
sg13
I-315068
sg14
g5
sg15
g5
sg16
g5
sg17
I1105
sg18
F0.0
sg19
g5
sg20
F0.0
sg21
I425000
sg22
I2027865
sg23
g5
sg24
g5
sg25
I315068
sg26
I210500
sg27
I1204583
sg28
I2027865
ssS'WAKEHAM JOHN'
p155
(dp156
g3
g5
sg4
g5
sg6
I103773
sg7
I00
sg8
g5
sg9
g5
sg11
g5
sg12
F0.0
sg13
g5
sg14
g5
sg15
g5
sg16
g5
sg17
g5
sg18
F0.0
sg19
I109298
sg20
F0.0
sg21
g5
sg22
g5
sg23
g5
sg24
g5
sg25
g5
sg26
g5
sg27
I213071
sg28
g5
ssS'POWERS WILLIAM'
p157
(dp158
g3
I653
sg4
g5
sg6
g5
sg7
I00
sg8
I-17500
sg9
S'ken.powers@enron.com'
p159
sg11
g5
sg12
F0.0
sg13
g5
sg14
I12
sg15
g5
sg16
I26
sg17
g5
sg18
F0.0
sg19
I17500
sg20
F0.0
sg21
g5
sg22
g5
sg23
I0
sg24
I0
sg25
g5
sg26
g5
sg27
g5
sg28
g5
ssS'GOLD JOSEPH'
p160
(dp161
g3
g5
sg4
g5
sg6
g5
sg7
I00
sg8
g5
sg9
S'joe.gold@enron.com'
p162
sg11
I304805
sg12
F3.2161059806508354
sg13
g5
sg14
g5
sg15
g5
sg16
g5
sg17
I819288
sg18
F0.0
sg19
g5
sg20
F0.0
sg21
I750000
sg22
I877611
sg23
g5
sg24
g5
sg25
I441096
sg26
I272880
sg27
I2146973
sg28
I436515
ssS'BANNANTINE JAMES M'
p163
(dp164
g3
I566
sg4
g5
sg6
I56301
sg7
I00
sg8
I-5104
sg9
S'james.bannantine@enron.com'
p165
sg11
g5
sg12
F10992.635220125787
sg13
I-560222
sg14
I465
sg15
g5
sg16
I29
sg17
I864523
sg18
F0.0
sg19
g5
sg20
F0.06890459363957598
sg21
g5
sg22
I5243487
sg23
I39
sg24
I0
sg25
I1757552
sg26
I477
sg27
I916197
sg28
I4046157
ssS'DUNCAN JOHN H'
p166
(dp167
g3
g5
sg4
g5
sg6
g5
sg7
I00
sg8
I-25000
sg9
g5
sg11
g5
sg12
F0.0
sg13
g5
sg14
g5
sg15
g5
sg16
g5
sg17
g5
sg18
F0.0
sg19
I102492
sg20
F0.0
sg21
g5
sg22
I371750
sg23
g5
sg24
g5
sg25
g5
sg26
g5
sg27
I77492
sg28
I371750
ssS'SHAPIRO RICHARD S'
p168
(dp169
g3
I15149
sg4
g5
sg6
I137767
sg7
I00
sg8
g5
sg9
S'richard.shapiro@enron.com'
p170
sg11
g5
sg12
F3.668112354873716
sg13
g5
sg14
I4527
sg15
g5
sg16
I1215
sg17
I705
sg18
F0.053497942386831275
sg19
g5
sg20
F0.0048848108786058485
sg21
I650000
sg22
I987001
sg23
I74
sg24
I65
sg25
I379164
sg26
I269076
sg27
I1057548
sg28
I607837
ssS'SHERRIFF JOHN R'
p171
(dp172
g3
I3187
sg4
g5
sg6
g5
sg7
I00
sg8
g5
sg9
S'john.sherriff@enron.com'
p173
sg11
I554422
sg12
F7.297406595456878
sg13
g5
sg14
I2103
sg15
g5
sg16
I92
sg17
I1852186
sg18
F0.25
sg19
g5
sg20
F0.008785691873235017
sg21
I1500000
sg22
I3128982
sg23
I28
sg24
I23
sg25
I1293424
sg26
I428780
sg27
I4335388
sg28
I1835558
ssS'SHELBY REX'
p174
(dp175
g3
I225
sg4
g5
sg6
I22884
sg7
I01
sg8
I-4167
sg9
S'rex.shelby@enron.com'
p176
sg11
g5
sg12
F11.771001302845491
sg13
g5
sg14
I91
sg15
g5
sg16
I39
sg17
I1573324
sg18
F0.358974358974359
sg19
g5
sg20
F0.057777777777777775
sg21
I200000
sg22
I2493616
sg23
I13
sg24
I14
sg25
I869220
sg26
I211844
sg27
I2003885
sg28
I1624396
ssS'LEMAISTRE CHARLES'
p177
(dp178
g3
g5
sg4
g5
sg6
g5
sg7
I00
sg8
I-25000
sg9
g5
sg11
g5
sg12
F0.0
sg13
g5
sg14
g5
sg15
g5
sg16
g5
sg17
g5
sg18
F0.0
sg19
I112492
sg20
F0.0
sg21
g5
sg22
I412878
sg23
g5
sg24
g5
sg25
g5
sg26
g5
sg27
I87492
sg28
I412878
ssS'DEFFNER JOSEPH M'
p179
(dp180
g3
I714
sg4
g5
sg6
I41626
sg7
I00
sg8
g5
sg9
S'joseph.deffner@enron.com'
p181
sg11
I335349
sg12
F0.7724152318298475
sg13
g5
sg14
I552
sg15
g5
sg16
I74
sg17
I25553
sg18
F0.05405405405405406
sg19
g5
sg20
F0.16106442577030813
sg21
I600000
sg22
I159211
sg23
I115
sg24
I4
sg25
I141833
sg26
I206121
sg27
I1208649
sg28
I17378
ssS'KISHKILL JOSEPH G'
p182
(dp183
g3
g5
sg4
g5
sg6
I116335
sg7
I00
sg8
I-51042
sg9
S'joe.kishkill@enron.com'
p184
sg11
g5
sg12
F5.936124789091285
sg13
g5
sg14
g5
sg15
g5
sg16
g5
sg17
I465357
sg18
F0.0
sg19
g5
sg20
F0.0
sg21
g5
sg22
I1034346
sg23
g5
sg24
g5
sg25
I1034346
sg26
I174246
sg27
I704896
sg28
g5
ssS'WHALLEY LAWRENCE G'
p185
(dp186
g3
I6019
sg4
g5
sg6
I57838
sg7
I00
sg8
g5
sg9
S'greg.whalley@enron.com'
p187
sg11
I808346
sg12
F11.911375018614166
sg13
g5
sg14
I3920
sg15
g5
sg16
I556
sg17
I301026
sg18
F0.04316546762589928
sg19
g5
sg20
F0.03090214321315833
sg21
I3000000
sg22
I6079137
sg23
I186
sg24
I24
sg25
I2796177
sg26
I510364
sg27
I4677574
sg28
I3282960
ssS'MCCONNELL MICHAEL S'
p188
(dp189
g3
I3329
sg4
g5
sg6
I81364
sg7
I00
sg8
g5
sg9
S'mike.mcconnell@enron.com'
p190
sg11
I554422
sg12
F8.495770303365678
sg13
g5
sg14
I2189
sg15
g5
sg16
I2742
sg17
I540
sg18
F0.07075127644055434
sg19
g5
sg20
F0.02763592670471613
sg21
I1100000
sg22
I3101279
sg23
I92
sg24
I194
sg25
I1478269
sg26
I365038
sg27
I2101364
sg28
I1623010
ssS'PIRO JIM'
p191
(dp192
g3
I58
sg4
g5
sg6
g5
sg7
I00
sg8
g5
sg9
S'jim.piro@enron.com'
p193
sg11
g5
sg12
F0.0
sg13
g5
sg14
I3
sg15
g5
sg16
I16
sg17
g5
sg18
F0.0625
sg19
g5
sg20
F0.0
sg21
g5
sg22
I47304
sg23
I0
sg24
I1
sg25
I47304
sg26
g5
sg27
g5
sg28
g5
ssS'DELAINEY DAVID W'
p194
(dp195
g3
I3093
sg4
g5
sg6
I86174
sg7
I01
sg8
g5
sg9
S'david.delainey@enron.com'
p196
sg11
I1294981
sg12
F9.897664878424155
sg13
g5
sg14
I2097
sg15
g5
sg16
I3069
sg17
I1661
sg18
F0.198435972629521
sg19
g5
sg20
F0.02133850630455868
sg21
I3000000
sg22
I3614261
sg23
I66
sg24
I609
sg25
I1323148
sg26
I365163
sg27
I4747979
sg28
I2291113
ssS'SULLIVAN-SHAKLOVITZ COLLEEN'
p197
(dp198
g3
g5
sg4
I181993
sg6
g5
sg7
I00
sg8
g5
sg9
g5
sg11
I554422
sg12
F8.369476406661793
sg13
g5
sg14
g5
sg15
g5
sg16
g5
sg17
I162
sg18
F0.0
sg19
g5
sg20
F0.0
sg21
I100000
sg22
I1362375
sg23
g5
sg24
g5
sg25
g5
sg26
I162779
sg27
I999356
sg28
I1362375
ssS'WROBEL BRUCE'
p199
(dp200
g3
g5
sg4
g5
sg6
g5
sg7
I00
sg8
g5
sg9
g5
sg11
g5
sg12
F0.0
sg13
g5
sg14
g5
sg15
g5
sg16
g5
sg17
g5
sg18
F0.0
sg19
g5
sg20
F0.0
sg21
g5
sg22
I139130
sg23
g5
sg24
g5
sg25
g5
sg26
g5
sg27
g5
sg28
I139130
ssS'LINDHOLM TOD A'
p201
(dp202
g3
g5
sg4
I204075
sg6
I57727
sg7
I00
sg8
g5
sg9
S'tod.lindholm@enron.com'
p203
sg11
I175000
sg12
F12.958838181995034
sg13
g5
sg14
g5
sg15
g5
sg16
g5
sg17
I2630
sg18
F0.0
sg19
g5
sg20
F0.0
sg21
I200000
sg22
I3064208
sg23
g5
sg24
g5
sg25
I514847
sg26
I236457
sg27
I875889
sg28
I2549361
ssS'MEYER JEROME J'
p204
(dp205
g3
g5
sg4
g5
sg6
I2151
sg7
I00
sg8
I-38346
sg9
g5
sg11
g5
sg12
F0.0
sg13
g5
sg14
g5
sg15
g5
sg16
g5
sg17
g5
sg18
F0.0
sg19
I38346
sg20
F0.0
sg21
g5
sg22
g5
sg23
g5
sg24
g5
sg25
g5
sg26
g5
sg27
I2151
sg28
g5
ssS'LAY KENNETH L'
p206
(dp207
g3
I4273
sg4
I202911
sg6
I99832
sg7
I01
sg8
I-300000
sg9
S'kenneth.lay@enron.com'
p208
sg11
I3600000
sg12
F45.79792618068657
sg13
g5
sg14
I2411
sg15
I81525000
sg16
I36
sg17
I10359729
sg18
F0.4444444444444444
sg19
g5
sg20
F0.028785396676807865
sg21
I7000000
sg22
I49110078
sg23
I123
sg24
I16
sg25
I14761694
sg26
I1072321
sg27
I103559793
sg28
I34348384
ssS'BUTTS ROBERT H'
p209
(dp210
g3
g5
sg4
g5
sg6
I9410
sg7
I00
sg8
I-75000
sg9
S'bob.butts@enron.com'
p211
sg11
I175000
sg12
F1.596915676287493
sg13
g5
sg14
g5
sg15
g5
sg16
g5
sg17
I150656
sg18
F0.0
sg19
g5
sg20
F0.0
sg21
I750000
sg22
I417619
sg23
g5
sg24
g5
sg25
I417619
sg26
I261516
sg27
I1271582
sg28
g5
ssS'OLSON CINDY K'
p212
(dp213
g3
I1184
sg4
I77716
sg6
I63791
sg7
I00
sg8
g5
sg9
S'cindy.olson@enron.com'
p214
sg11
I100000
sg12
F7.921413768164387
sg13
g5
sg14
I856
sg15
g5
sg16
I52
sg17
I972
sg18
F0.28846153846153844
sg19
g5
sg20
F0.016891891891891893
sg21
I750000
sg22
I2606763
sg23
I20
sg24
I15
sg25
I969729
sg26
I329078
sg27
I1321557
sg28
I1637034
ssS'MCDONALD REBECCA'
p215
(dp216
g3
I894
sg4
g5
sg6
g5
sg7
I00
sg8
g5
sg9
S'rebecca.mcdonald@enron.com'
p217
sg11
g5
sg12
F0.0
sg13
g5
sg14
I720
sg15
g5
sg16
I13
sg17
g5
sg18
F0.07692307692307693
sg19
g5
sg20
F0.06040268456375839
sg21
g5
sg22
I1691366
sg23
I54
sg24
I1
sg25
I934065
sg26
g5
sg27
g5
sg28
I757301
ssS'CUMBERLAND MICHAEL S'
p218
(dp219
g3
g5
sg4
g5
sg6
I22344
sg7
I00
sg8
g5
sg9
g5
sg11
I275000
sg12
F1.1246139784422846
sg13
g5
sg14
g5
sg15
g5
sg16
g5
sg17
I713
sg18
F0.0
sg19
g5
sg20
F0.0
sg21
I325000
sg22
I207940
sg23
g5
sg24
g5
sg25
I207940
sg26
I184899
sg27
I807956
sg28
g5
ssS'GAHN ROBERT S'
p220
(dp221
g3
g5
sg4
I73122
sg6
I50080
sg7
I00
sg8
I-1042
sg9
g5
sg11
g5
sg12
F1.6593423190700387
sg13
g5
sg14
g5
sg15
g5
sg16
g5
sg17
I76547
sg18
F0.0
sg19
g5
sg20
F0.0
sg21
I509870
sg22
I318607
sg23
g5
sg24
g5
sg25
I235370
sg26
I192008
sg27
I900585
sg28
I83237
ssS'MCCLELLAN GEORGE'
p222
(dp223
g3
I1744
sg4
g5
sg6
I228763
sg7
I00
sg8
I-125000
sg9
S'george.mcclellan@enron.com'
p224
sg11
g5
sg12
F3.5983835270089175
sg13
g5
sg14
I1469
sg15
g5
sg16
I49
sg17
I51587
sg18
F0.0
sg19
g5
sg20
F0.02981651376146789
sg21
I900000
sg22
I947861
sg23
I52
sg24
I0
sg25
I441096
sg26
I263413
sg27
I1318763
sg28
I506765
ssS'HERMANN ROBERT J'
p225
(dp226
g3
g5
sg4
g5
sg6
I48357
sg7
I00
sg8
I-280000
sg9
S'robert.hermann@enron.com'
p227
sg11
I150000
sg12
F2.543685254489593
sg13
g5
sg14
g5
sg15
g5
sg16
g5
sg17
I416441
sg18
F0.0
sg19
g5
sg20
F0.0
sg21
I700000
sg22
I668132
sg23
g5
sg24
g5
sg25
I480632
sg26
I262663
sg27
I1297461
sg28
I187500
ssS'SCRIMSHAW MATTHEW'
p228
(dp229
g3
g5
sg4
g5
sg6
g5
sg7
I00
sg8
g5
sg9
S'matthew.scrimshaw@enron.com'
p230
sg11
g5
sg12
F0.0
sg13
g5
sg14
g5
sg15
g5
sg16
g5
sg17
g5
sg18
F0.0
sg19
g5
sg20
F0.0
sg21
g5
sg22
I759557
sg23
g5
sg24
g5
sg25
g5
sg26
g5
sg27
g5
sg28
I759557
ssS'GATHMANN WILLIAM D'
p231
(dp232
g3
g5
sg4
g5
sg6
g5
sg7
I00
sg8
g5
sg9
g5
sg11
g5
sg12
F0.0
sg13
I-72419
sg14
g5
sg15
g5
sg16
g5
sg17
g5
sg18
F0.0
sg19
g5
sg20
F0.0
sg21
g5
sg22
I1945360
sg23
g5
sg24
g5
sg25
I264013
sg26
g5
sg27
g5
sg28
I1753766
ssS'HAEDICKE MARK E'
p233
(dp234
g3
I4009
sg4
I2157527
sg6
I76169
sg7
I00
sg8
I-934484
sg9
S'mark.haedicke@enron.com'
p235
sg11
I983346
sg12
F2.146592716338122
sg13
I-329825
sg14
I1847
sg15
g5
sg16
I1941
sg17
I52382
sg18
F0.03142709943328181
sg19
g5
sg20
F0.04489897730107259
sg21
I1150000
sg22
I803094
sg23
I180
sg24
I61
sg25
I524169
sg26
I374125
sg27
I3859065
sg28
I608750
ssS'BOWEN JR RAYMOND M'
p236
(dp237
g3
I1858
sg4
g5
sg6
I65907
sg7
I01
sg8
I-833
sg9
S'raymond.bowen@enron.com'
p238
sg11
I974293
sg12
F0.9047167813468007
sg13
g5
sg14
I1593
sg15
g5
sg16
I27
sg17
I1621
sg18
F0.5555555555555556
sg19
g5
sg20
F0.07534983853606028
sg21
I1350000
sg22
I252055
sg23
I140
sg24
I15
sg25
I252055
sg26
I278601
sg27
I2669589
sg28
g5
ssS'GILLIS JOHN'
p239
(dp240
g3
g5
sg4
g5
sg6
g5
sg7
I00
sg8
g5
sg9
g5
sg11
g5
sg12
F0.0
sg13
g5
sg14
g5
sg15
g5
sg16
g5
sg17
g5
sg18
F0.0
sg19
g5
sg20
F0.0
sg21
g5
sg22
I85641
sg23
g5
sg24
g5
sg25
I75838
sg26
g5
sg27
g5
sg28
I9803
ssS'FITZGERALD JAY L'
p241
(dp242
g3
I936
sg4
g5
sg6
I23870
sg7
I00
sg8
g5
sg9
S'jay.fitzgerald@enron.com'
p243
sg11
I556416
sg12
F8.140492174515582
sg13
g5
sg14
I723
sg15
g5
sg16
I16
sg17
I285414
sg18
F0.5
sg19
g5
sg20
F0.0010683760683760685
sg21
I350000
sg22
I1621236
sg23
I1
sg24
I8
sg25
I956775
sg26
I199157
sg27
I1414857
sg28
I664461
ssS'MORAN MICHAEL P'
p244
(dp245
g3
I672
sg4
g5
sg6
g5
sg7
I00
sg8
g5
sg9
S'michael.moran@enron.com'
p246
sg11
g5
sg12
F0.0
sg13
g5
sg14
I127
sg15
g5
sg16
I19
sg17
g5
sg18
F0.0
sg19
g5
sg20
F0.0
sg21
g5
sg22
I221141
sg23
I0
sg24
I0
sg25
I161602
sg26
g5
sg27
g5
sg28
I59539
ssS'REDMOND BRIAN L'
p247
(dp248
g3
I1671
sg4
g5
sg6
I14689
sg7
I00
sg8
g5
sg9
S'brian.redmond@enron.com'
p249
sg11
g5
sg12
F81.47794299876084
sg13
g5
sg14
I1063
sg15
g5
sg16
I221
sg17
g5
sg18
F0.22171945701357465
sg19
g5
sg20
F0.12208258527827648
sg21
g5
sg22
I7890324
sg23
I204
sg24
I49
sg25
I381285
sg26
I96840
sg27
I111529
sg28
I7509039
ssS'BAZELIDES PHILIP J'
p250
(dp251
g3
g5
sg4
I684694
sg6
g5
sg7
I00
sg8
g5
sg9
g5
sg11
I93750
sg12
F19.793127768566407
sg13
g5
sg14
g5
sg15
g5
sg16
g5
sg17
I874
sg18
F0.0
sg19
g5
sg20
F0.0
sg21
g5
sg22
I1599641
sg23
g5
sg24
g5
sg25
g5
sg26
I80818
sg27
I860136
sg28
I1599641
ssS'BELDEN TIMOTHY N'
p252
(dp253
g3
I7991
sg4
I2144013
sg6
I17355
sg7
I01
sg8
I-2334434
sg9
S'tim.belden@enron.com'
p254
sg11
g5
sg12
F5.190234533806232
sg13
g5
sg14
I5521
sg15
g5
sg16
I484
sg17
I210698
sg18
F0.2231404958677686
sg19
g5
sg20
F0.028532098610937303
sg21
I5249999
sg22
I1110705
sg23
I228
sg24
I108
sg25
I157569
sg26
I213999
sg27
I5501630
sg28
I953136
ssS'DURAN WILLIAM D'
p255
(dp256
g3
I904
sg4
g5
sg6
I25785
sg7
I00
sg8
g5
sg9
S'w.duran@enron.com'
p257
sg11
I1105218
sg12
F7.788193191957929
sg13
g5
sg14
I599
sg15
g5
sg16
I12
sg17
I1568
sg18
F0.25
sg19
g5
sg20
F0.1172566371681416
sg21
I750000
sg22
I1640910
sg23
I106
sg24
I3
sg25
I189041
sg26
I210692
sg27
I2093263
sg28
I1451869
ssS'THORN TERENCE H'
p258
(dp259
g3
I266
sg4
I16586
sg6
I46145
sg7
I00
sg8
g5
sg9
S'terence.thorn@enron.com'
p260
sg11
I200000
sg12
F21.692696302900135
sg13
g5
sg14
I73
sg15
g5
sg16
I41
sg17
I426629
sg18
F0.0
sg19
g5
sg20
F0.0
sg21
g5
sg22
I4817796
sg23
I0
sg24
I0
sg25
I365320
sg26
I222093
sg27
I911453
sg28
I4452476
ssS'FASTOW ANDREW S'
p261
(dp262
g3
g5
sg4
g5
sg6
I55921
sg7
I01
sg8
I-1386055
sg9
S'andrew.fastow@enron.com'
p263
sg11
I1736055
sg12
F4.0717498150661
sg13
g5
sg14
g5
sg15
g5
sg16
g5
sg17
I277464
sg18
F0.0
sg19
g5
sg20
F0.0
sg21
I1300000
sg22
I1794412
sg23
g5
sg24
g5
sg25
I1794412
sg26
I440698
sg27
I2424083
sg28
g5
ssS'FOY JOE'
p264
(dp265
g3
I57
sg4
I181755
sg6
g5
sg7
I00
sg8
g5
sg9
S'tracy.foy@enron.com'
p266
sg11
g5
sg12
F0.0
sg13
g5
sg14
I2
sg15
g5
sg16
I13
sg17
g5
sg18
F0.0
sg19
g5
sg20
F0.0
sg21
g5
sg22
I343434
sg23
I0
sg24
I0
sg25
g5
sg26
g5
sg27
I181755
sg28
I343434
ssS'CALGER CHRISTOPHER F'
p267
(dp268
g3
I2598
sg4
g5
sg6
I35818
sg7
I01
sg8
I-262500
sg9
S'christopher.calger@enron.com'
p269
sg11
I375304
sg12
F0.5246992993017998
sg13
g5
sg14
I2188
sg15
g5
sg16
I144
sg17
I486
sg18
F0.1736111111111111
sg19
g5
sg20
F0.07659738260200154
sg21
I1250000
sg22
I126027
sg23
I199
sg24
I25
sg25
I126027
sg26
I240189
sg27
I1639297
sg28
g5
ssS'RICE KENNETH D'
p270
(dp271
g3
I905
sg4
g5
sg6
I46950
sg7
I01
sg8
I-3504386
sg9
S'ken.rice@enron.com'
p272
sg11
I1617011
sg12
F53.591558972603394
sg13
g5
sg14
I864
sg15
g5
sg16
I18
sg17
I174839
sg18
F0.2222222222222222
sg19
g5
sg20
F0.04640883977900553
sg21
I1750000
sg22
I22542539
sg23
I42
sg24
I4
sg25
I2748364
sg26
I420636
sg27
I505050
sg28
I19794175
ssS'KAMINSKI WINCENTY J'
p273
(dp274
g3
I4607
sg4
g5
sg6
I83585
sg7
I00
sg8
g5
sg9
S'vince.kaminski@enron.com'
p275
sg11
I323466
sg12
F3.5479223994096714
sg13
g5
sg14
I583
sg15
g5
sg16
I14368
sg17
I4669
sg18
F0.011901447661469933
sg19
g5
sg20
F0.008899500759713479
sg21
I400000
sg22
I976037
sg23
I41
sg24
I171
sg25
I126027
sg26
I275101
sg27
I1086821
sg28
I850010
ssS'LOCKHART EUGENE E'
p276
(dp277
g3
g5
sg4
g5
sg6
g5
sg7
I00
sg8
g5
sg9
g5
sg11
g5
sg12
F0.0
sg13
g5
sg14
g5
sg15
g5
sg16
g5
sg17
g5
sg18
F0.0
sg19
g5
sg20
F0.0
sg21
g5
sg22
g5
sg23
g5
sg24
g5
sg25
g5
sg26
g5
sg27
g5
sg28
g5
ssS'COX DAVID'
p278
(dp279
g3
I102
sg4
g5
sg6
I27861
sg7
I00
sg8
I-41250
sg9
S'chip.cox@enron.com'
p280
sg11
g5
sg12
F1.5770026217991142
sg13
g5
sg14
I71
sg15
g5
sg16
I33
sg17
I494
sg18
F0.12121212121212122
sg19
g5
sg20
F0.0
sg21
I800000
sg22
I495633
sg23
I0
sg24
I4
sg25
I378082
sg26
I314288
sg27
I1101393
sg28
I117551
ssS'OVERDYKE JR JERE C'
p281
(dp282
g3
g5
sg4
g5
sg6
I18834
sg7
I00
sg8
g5
sg9
S'jere.overdyke@enron.com'
p283
sg11
I135836
sg12
F76.96984442969844
sg13
g5
sg14
g5
sg15
g5
sg16
g5
sg17
I176
sg18
F0.0
sg19
g5
sg20
F0.0
sg21
g5
sg22
I7307594
sg23
g5
sg24
g5
sg25
I2041016
sg26
I94941
sg27
I249787
sg28
I5266578
ssS'PEREIRA PAULO V. FERRAZ'
p284
(dp285
g3
g5
sg4
g5
sg6
I27942
sg7
I00
sg8
I-101250
sg9
g5
sg11
g5
sg12
F0.0
sg13
g5
sg14
g5
sg15
g5
sg16
g5
sg17
g5
sg18
F0.0
sg19
I101250
sg20
F0.0
sg21
g5
sg22
g5
sg23
g5
sg24
g5
sg25
g5
sg26
g5
sg27
I27942
sg28
g5
ssS'STABLER FRANK'
p286
(dp287
g3
g5
sg4
g5
sg6
I16514
sg7
I00
sg8
g5
sg9
S'frank.stabler@enron.com'
p288
sg11
g5
sg12
F2.1366585665255404
sg13
g5
sg14
g5
sg15
g5
sg16
g5
sg17
I356071
sg18
F0.0
sg19
g5
sg20
F0.0
sg21
I500000
sg22
I511734
sg23
g5
sg24
g5
sg25
I511734
sg26
I239502
sg27
I1112087
sg28
g5
ssS'SKILLING JEFFREY K'
p289
(dp290
g3
I3627
sg4
g5
sg6
I29336
sg7
I01
sg8
g5
sg9
S'jeff.skilling@enron.com'
p291
sg11
I1920000
sg12
F23.481200585282625
sg13
g5
sg14
I2042
sg15
g5
sg16
I108
sg17
I22122
sg18
F0.2777777777777778
sg19
g5
sg20
F0.0242624758753791
sg21
I5600000
sg22
I26093672
sg23
I88
sg24
I30
sg25
I6843672
sg26
I1111258
sg27
I8682716
sg28
I19250000
ssS'BLAKE JR. NORMAN P'
p292
(dp293
g3
g5
sg4
g5
sg6
I1279
sg7
I00
sg8
I-113784
sg9
g5
sg11
g5
sg12
F0.0
sg13
g5
sg14
g5
sg15
g5
sg16
g5
sg17
g5
sg18
F0.0
sg19
I113784
sg20
F0.0
sg21
g5
sg22
g5
sg23
g5
sg24
g5
sg25
g5
sg26
g5
sg27
I1279
sg28
g5
ssS'SHERRICK JEFFREY B'
p294
(dp295
g3
I613
sg4
g5
sg6
g5
sg7
I00
sg8
g5
sg9
S'jeffrey.sherrick@enron.com'
p296
sg11
g5
sg12
F0.0
sg13
g5
sg14
I583
sg15
g5
sg16
I25
sg17
g5
sg18
F0.72
sg19
g5
sg20
F0.0636215334420881
sg21
g5
sg22
I1832468
sg23
I39
sg24
I18
sg25
I405999
sg26
g5
sg27
g5
sg28
I1426469
ssS'PRENTICE JAMES'
p297
(dp298
g3
g5
sg4
I564348
sg6
g5
sg7
I00
sg8
g5
sg9
S'james.prentice@enron.com'
p299
sg11
g5
sg12
F0.0
sg13
g5
sg14
g5
sg15
g5
sg16
g5
sg17
g5
sg18
F0.0
sg19
g5
sg20
F0.0
sg21
g5
sg22
I1095040
sg23
g5
sg24
g5
sg25
I208809
sg26
g5
sg27
I564348
sg28
I886231
ssS'GRAY RODNEY'
p300
(dp301
g3
g5
sg4
I93585
sg6
g5
sg7
I00
sg8
g5
sg9
g5
sg11
I365625
sg12
F0.0
sg13
g5
sg14
g5
sg15
g5
sg16
g5
sg17
I680833
sg18
F0.0
sg19
g5
sg20
F0.0
sg21
g5
sg22
g5
sg23
g5
sg24
g5
sg25
g5
sg26
I6615
sg27
I1146658
sg28
g5
ssS'PICKERING MARK R'
p302
(dp303
g3
I898
sg4
g5
sg6
I31653
sg7
I00
sg8
g5
sg9
S'mark.pickering@enron.com'
p304
sg11
g5
sg12
F0.04396392875516956
sg13
g5
sg14
I728
sg15
I400000
sg16
I67
sg17
g5
sg18
F0.0
sg19
g5
sg20
F0.0077951002227171495
sg21
I300000
sg22
I28798
sg23
I7
sg24
I0
sg25
g5
sg26
I655037
sg27
I1386690
sg28
I28798
ssS'THE TRAVEL AGENCY IN THE PARK'
p305
(dp306
g3
g5
sg4
g5
sg6
g5
sg7
I00
sg8
g5
sg9
g5
sg11
g5
sg12
F0.0
sg13
g5
sg14
g5
sg15
g5
sg16
g5
sg17
I362096
sg18
F0.0
sg19
g5
sg20
F0.0
sg21
g5
sg22
g5
sg23
g5
sg24
g5
sg25
g5
sg26
g5
sg27
I362096
sg28
g5
ssS'NOLES JAMES L'
p307
(dp308
g3
g5
sg4
I774401
sg6
g5
sg7
I00
sg8
g5
sg9
g5
sg11
g5
sg12
F0.0
sg13
I-94556
sg14
g5
sg15
g5
sg16
g5
sg17
g5
sg18
F0.0
sg19
g5
sg20
F0.0
sg21
g5
sg22
I368705
sg23
g5
sg24
g5
sg25
I463261
sg26
g5
sg27
I774401
sg28
g5
ssS'KEAN STEVEN J'
p309
(dp310
g3
I12754
sg4
g5
sg6
I41953
sg7
I00
sg8
g5
sg9
S'steven.kean@enron.com'
p311
sg11
I300000
sg12
F15.219054355514446
sg13
g5
sg14
I3639
sg15
g5
sg16
I6759
sg17
I1231
sg18
F0.05725699067909454
sg19
g5
sg20
F0.010976948408342482
sg21
I1000000
sg22
I6153642
sg23
I140
sg24
I387
sg25
I4131594
sg26
I404338
sg27
I1747522
sg28
I2022048
ssS'FOWLER PEGGY'
p312
(dp313
g3
I517
sg4
g5
sg6
g5
sg7
I00
sg8
g5
sg9
S'kulvinder.fowler@enron.com'
p314
sg11
g5
sg12
F0.0
sg13
g5
sg14
I10
sg15
g5
sg16
I36
sg17
g5
sg18
F0.0
sg19
g5
sg20
F0.0
sg21
g5
sg22
I1884748
sg23
I0
sg24
I0
sg25
I560170
sg26
g5
sg27
g5
sg28
I1324578
ssS'WASAFF GEORGE'
p315
(dp316
g3
I400
sg4
I831299
sg6
g5
sg7
I00
sg8
I-583325
sg9
S'george.wasaff@enron.com'
p317
sg11
I200000
sg12
F7.909456299327682
sg13
g5
sg14
I337
sg15
g5
sg16
I30
sg17
I1425
sg18
F0.23333333333333334
sg19
g5
sg20
F0.055
sg21
I325000
sg22
I2056427
sg23
I22
sg24
I7
sg25
I388167
sg26
I259996
sg27
I1034395
sg28
I1668260
ssS'WHITE JR THOMAS E'
p318
(dp319
g3
g5
sg4
g5
sg6
I81353
sg7
I00
sg8
g5
sg9
S'thomas.white@enron.com'
p320
sg11
g5
sg12
F47.69156618158801
sg13
g5
sg14
g5
sg15
g5
sg16
g5
sg17
I1085463
sg18
F0.0
sg19
g5
sg20
F0.0
sg21
I450000
sg22
I15144123
sg23
g5
sg24
g5
sg25
I13847074
sg26
I317543
sg27
I1934359
sg28
I1297049
ssS'CHRISTODOULOU DIOMEDES'
p321
(dp322
g3
g5
sg4
g5
sg6
g5
sg7
I00
sg8
g5
sg9
S'diomedes.christodoulou@enron.com'
p323
sg11
g5
sg12
F0.0
sg13
g5
sg14
g5
sg15
g5
sg16
g5
sg17
g5
sg18
F0.0
sg19
g5
sg20
F0.0
sg21
g5
sg22
I6077885
sg23
g5
sg24
g5
sg25
I950730
sg26
g5
sg27
g5
sg28
I5127155
ssS'ALLEN PHILLIP K'
p324
(dp325
g3
I2902
sg4
I2869717
sg6
I13868
sg7
I00
sg8
I-3081055
sg9
S'phillip.allen@enron.com'
p326
sg11
I304805
sg12
F8.563991978411032
sg13
I-126027
sg14
I1407
sg15
g5
sg16
I2195
sg17
I152
sg18
F0.029612756264236904
sg19
g5
sg20
F0.016195727084769126
sg21
I4175000
sg22
I1729541
sg23
I47
sg24
I65
sg25
I126027
sg26
I201955
sg27
I4484442
sg28
I1729541
ssS'SHARP VICTORIA T'
p327
(dp328
g3
I3136
sg4
I187469
sg6
I116337
sg7
I00
sg8
g5
sg9
S'vicki.sharp@enron.com'
p329
sg11
I422158
sg12
F1.9913115665777406
sg13
g5
sg14
I2477
sg15
g5
sg16
I136
sg17
I2401
sg18
F0.04411764705882353
sg19
g5
sg20
F0.007653061224489796
sg21
I600000
sg22
I494136
sg23
I24
sg24
I6
sg25
I213063
sg26
I248146
sg27
I1576511
sg28
I281073
ssS'JAEDICKE ROBERT'
p330
(dp331
g3
g5
sg4
g5
sg6
g5
sg7
I00
sg8
I-25000
sg9
g5
sg11
g5
sg12
F0.0
sg13
I-44093
sg14
g5
sg15
g5
sg16
g5
sg17
g5
sg18
F0.0
sg19
I108750
sg20
F0.0
sg21
g5
sg22
I431750
sg23
g5
sg24
g5
sg25
I44093
sg26
g5
sg27
I83750
sg28
I431750
ssS'WINOKUR JR. HERBERT S'
p332
(dp333
g3
g5
sg4
g5
sg6
I1413
sg7
I00
sg8
I-25000
sg9
g5
sg11
g5
sg12
F0.0
sg13
g5
sg14
g5
sg15
g5
sg16
g5
sg17
g5
sg18
F0.0
sg19
I108579
sg20
F0.0
sg21
g5
sg22
g5
sg23
g5
sg24
g5
sg25
g5
sg26
g5
sg27
I84992
sg28
g5
ssS'BROWN MICHAEL'
p334
(dp335
g3
I1486
sg4
g5
sg6
I49288
sg7
I00
sg8
g5
sg9
S'michael.brown@enron.com'
p336
sg11
g5
sg12
F0.0
sg13
g5
sg14
I761
sg15
g5
sg16
I41
sg17
g5
sg18
F0.024390243902439025
sg19
g5
sg20
F0.008748317631224764
sg21
g5
sg22
g5
sg23
I13
sg24
I1
sg25
g5
sg26
g5
sg27
I49288
sg28
g5
ssS'BADUM JAMES P'
p337
(dp338
g3
g5
sg4
I178980
sg6
I3486
sg7
I00
sg8
g5
sg9
g5
sg11
g5
sg12
F0.0
sg13
g5
sg14
g5
sg15
g5
sg16
g5
sg17
g5
sg18
F0.0
sg19
g5
sg20
F0.0
sg21
g5
sg22
I257817
sg23
g5
sg24
g5
sg25
g5
sg26
g5
sg27
I182466
sg28
I257817
ssS'HUGHES JAMES A'
p339
(dp340
g3
I719
sg4
g5
sg6
g5
sg7
I00
sg8
g5
sg9
S'james.hughes@enron.com'
p341
sg11
g5
sg12
F0.0
sg13
g5
sg14
I589
sg15
g5
sg16
I34
sg17
g5
sg18
F0.14705882352941177
sg19
g5
sg20
F0.048678720445062586
sg21
g5
sg22
I1118394
sg23
I35
sg24
I5
sg25
I363428
sg26
g5
sg27
g5
sg28
I754966
ssS'REYNOLDS LAWRENCE'
p342
(dp343
g3
g5
sg4
I51365
sg6
I8409
sg7
I00
sg8
I-200000
sg9
g5
sg11
I156250
sg12
F55.26107671566382
sg13
I-140264
sg14
g5
sg15
g5
sg16
g5
sg17
I202052
sg18
F0.0
sg19
g5
sg20
F0.0
sg21
I100000
sg22
I4221891
sg23
g5
sg24
g5
sg25
I201483
sg26
I76399
sg27
I394475
sg28
I4160672
ssS'DIMICHELE RICHARD G'
p344
(dp345
g3
g5
sg4
g5
sg6
I35812
sg7
I00
sg8
g5
sg9
S'richard.dimichele@enron.com'
p346
sg11
I694862
sg12
F31.652061737978904
sg13
g5
sg14
g5
sg15
g5
sg16
g5
sg17
I374689
sg18
F0.0
sg19
g5
sg20
F0.0
sg21
I1000000
sg22
I8317782
sg23
g5
sg24
g5
sg25
I126027
sg26
I262788
sg27
I2368151
sg28
I8191755
ssS'BHATNAGAR SANJAY'
p347
(dp348
g3
I523
sg4
g5
sg6
g5
sg7
I00
sg8
g5
sg9
S'sanjay.bhatnagar@enron.com'
p349
sg11
g5
sg12
F0.0
sg13
I15456290
sg14
I463
sg15
g5
sg16
I29
sg17
I137864
sg18
F0.034482758620689655
sg19
I137864
sg20
F0.0
sg21
g5
sS'total_stock_value'
p350
S'NaN'
p351
sg23
I0
sg24
I1
sg25
I-2604490
sg26
g5
sg27
I15456290
sg28
I2604490
ssS'CARTER REBECCA C'
p352
(dp353
g3
I312
sg4
g5
sg6
g5
sg7
I00
sg8
I-159792
sg9
S'rebecca.carter@enron.com'
p354
sg11
I75000
sg12
F0.0
sg13
I-307301
sg14
I196
sg15
g5
sg16
I15
sg17
I540
sg18
F0.4666666666666667
sg19
g5
sg20
F0.09294871794871795
sg21
I300000
sg22
g5
sg23
I29
sg24
I7
sg25
I307301
sg26
I261809
sg27
I477557
sg28
g5
ssS'BUCHANAN HAROLD G'
p355
(dp356
g3
I1088
sg4
g5
sg6
I600
sg7
I00
sg8
g5
sg9
S'john.buchanan@enron.com'
p357
sg11
I304805
sg12
F4.090465572924437
sg13
g5
sg14
I23
sg15
g5
sg16
I125
sg17
I1215
sg18
F0.0
sg19
g5
sg20
F0.0
sg21
I500000
sg22
I1014505
sg23
I0
sg24
I0
sg25
I189041
sg26
I248017
sg27
I1054637
sg28
I825464
ssS'YEAP SOON'
p358
(dp359
g3
g5
sg4
g5
sg6
I55097
sg7
I00
sg8
g5
sg9
g5
sg11
g5
sg12
F0.0
sg13
g5
sg14
g5
sg15
g5
sg16
g5
sg17
g5
sg18
F0.0
sg19
g5
sg20
F0.0
sg21
g5
sg22
I192758
sg23
g5
sg24
g5
sg25
g5
sg26
g5
sg27
I55097
sg28
I192758
ssS'MURRAY JULIA H'
p360
(dp361
g3
I2192
sg4
g5
sg6
I57580
sg7
I00
sg8
g5
sg9
S'julia.murray@enron.com'
p362
sg11
I125000
sg12
F2.605768392037822
sg13
g5
sg14
I395
sg15
g5
sg16
I45
sg17
I330
sg18
F0.044444444444444446
sg19
g5
sg20
F0.005018248175182482
sg21
I400000
sg22
I597461
sg23
I11
sg24
I2
sg25
I196983
sg26
I229284
sg27
I812194
sg28
I400478
ssS'GARLAND C KEVIN'
p363
(dp364
g3
I209
sg4
g5
sg6
I48405
sg7
I00
sg8
g5
sg9
S'kevin.garland@enron.com'
p365
sg11
I375304
sg12
F3.8636277409397013
sg13
g5
sg14
I178
sg15
g5
sg16
I44
sg17
I60814
sg18
F0.6136363636363636
sg19
g5
sg20
F0.04784688995215311
sg21
I850000
sg22
I896153
sg23
I10
sg24
I27
sg25
I259907
sg26
I231946
sg27
I1566469
sg28
I636246
ssS'DODSON KEITH'
p366
(dp367
g3
I176
sg4
g5
sg6
I28164
sg7
I00
sg8
g5
sg9
S'keith.dodson@enron.com'
p368
sg11
g5
sg12
F0.0
sg13
g5
sg14
I114
sg15
g5
sg16
I14
sg17
I774
sg18
F0.21428571428571427
sg19
g5
sg20
F0.056818181818181816
sg21
I70000
sg22
g5
sg23
I10
sg24
I3
sg25
g5
sg26
I221003
sg27
I319941
sg28
g5
ssS'YEAGER F SCOTT'
p369
(dp370
g3
g5
sg4
g5
sg6
I53947
sg7
I01
sg8
g5
sg9
S'scott.yeager@enron.com'
p371
sg11
g5
sg12
F75.02861688225602
sg13
g5
sg14
g5
sg15
g5
sg16
g5
sg17
I147950
sg18
F0.0
sg19
g5
sg20
F0.0
sg21
g5
sg22
I11884758
sg23
g5
sg24
g5
sg25
I3576206
sg26
I158403
sg27
I360300
sg28
I8308552
ssS'HIRKO JOSEPH'
p372
(dp373
g3
g5
sg4
I10259
sg6
I77978
sg7
I01
sg8
g5
sg9
S'joe.hirko@enron.com'
p374
sg11
g5
sg12
F0.0
sg13
g5
sg14
g5
sg15
g5
sg16
g5
sg17
I2856
sg18
F0.0
sg19
g5
sg20
F0.0
sg21
g5
sg22
I30766064
sg23
g5
sg24
g5
sg25
g5
sg26
g5
sg27
I91093
sg28
I30766064
ssS'DIETRICH JANET R'
p375
(dp376
g3
I2572
sg4
g5
sg6
I3475
sg7
I00
sg8
g5
sg9
S'janet.dietrich@enron.com'
p377
sg11
I556416
sg12
F7.457365053978409
sg13
g5
sg14
I1902
sg15
g5
sg16
I63
sg17
I473
sg18
F0.2222222222222222
sg19
g5
sg20
F0.11858475894245724
sg21
I600000
sg22
I1865087
sg23
I305
sg24
I14
sg25
I315068
sg26
I250100
sg27
I1410464
sg28
I1550019
ssS'DERRICK JR. JAMES V'
p378
(dp379
g3
I2181
sg4
g5
sg6
I51124
sg7
I00
sg8
I-1284000
sg9
S'james.derrick@enron.com'
p380
sg11
I484000
sg12
F17.9373709063214
sg13
I-1787380
sg14
I1401
sg15
g5
sg16
I909
sg17
I7482
sg18
F0.022002200220022004
sg19
g5
sg20
F0.029344337459880788
sg21
I800000
sg22
I8831913
sg23
I64
sg24
I20
sg25
I1787380
sg26
I492375
sg27
I550981
sg28
I8831913
ssS'FREVERT MARK A'
p381
(dp382
g3
I3275
sg4
I6426990
sg6
I86987
sg7
I00
sg8
I-3367011
sg9
S'mark.frevert@enron.com'
p383
sg11
I1617011
sg12
F13.782396044232806
sg13
g5
sg14
I2979
sg15
I2000000
sg16
I21
sg17
I7427621
sg18
F0.2857142857142857
sg19
g5
sg20
F0.07389312977099237
sg21
I2000000
sg22
I14622185
sg23
I242
sg24
I6
sg25
I4188667
sg26
I1060932
sg27
I17252530
sg28
I10433518
ssS'PAI LOU L'
p384
(dp385
g3
g5
sg4
g5
sg6
I32047
sg7
I00
sg8
g5
sg9
S'lou.pai@enron.com'
p386
sg11
g5
sg12
F90.95013345858202
sg13
g5
sg14
g5
sg15
g5
sg16
g5
sg17
I1829457
sg18
F0.0
sg19
g5
sg20
F0.0
sg21
I1000000
sg22
I23817930
sg23
g5
sg24
g5
sg25
I8453763
sg26
I261879
sg27
I3123383
sg28
I15364167
ssS'BAY FRANKLIN R'
p387
(dp388
g3
g5
sg4
I260455
sg6
I129142
sg7
I00
sg8
I-201641
sg9
S'frank.bay@enron.com'
p389
sg11
g5
sg12
F0.26291875112132884
sg13
I-82782
sg14
g5
sg15
g5
sg16
g5
sg17
I69
sg18
F0.0
sg19
g5
sg20
F0.0
sg21
I400000
sg22
I63014
sg23
g5
sg24
g5
sg25
I145796
sg26
I239671
sg27
I827696
sg28
g5
ssS'HAYSLETT RODERICK J'
p390
(dp391
g3
I2649
sg4
g5
sg6
g5
sg7
I00
sg8
g5
sg9
S'rod.hayslett@enron.com'
p392
sg11
g5
sg12
F0.0
sg13
g5
sg14
I571
sg15
g5
sg16
I1061
sg17
g5
sg18
F0.03581526861451461
sg19
g5
sg20
F0.01321253303133258
sg21
g5
sg22
I346663
sg23
I35
sg24
I38
sg25
I346663
sg26
g5
sg27
g5
sg28
g5
ssS'FUGH JOHN L'
p393
(dp394
g3
g5
sg4
I50591
sg6
g5
sg7
I00
sg8
g5
sg9
g5
sg11
g5
sg12
F0.0
sg13
g5
sg14
g5
sg15
g5
sg16
g5
sg17
g5
sg18
F0.0
sg19
g5
sg20
F0.0
sg21
g5
sg22
I176378
sg23
g5
sg24
g5
sg25
g5
sg26
g5
sg27
I50591
sg28
I176378
ssS'FALLON JAMES B'
p395
(dp396
g3
I1755
sg4
g5
sg6
I95924
sg7
I00
sg8
g5
sg9
S'jim.fallon@enron.com'
p397
sg11
I374347
sg12
F7.657553810393056
sg13
g5
sg14
I1604
sg15
g5
sg16
I75
sg17
I401481
sg18
F0.49333333333333335
sg19
g5
sg20
F0.023931623931623933
sg21
I2500000
sg22
I2332399
sg23
I42
sg24
I37
sg25
I1392142
sg26
I304588
sg27
I3676340
sg28
I940257
ssS'KOENIG MARK E'
p398
(dp399
g3
I2374
sg4
g5
sg6
I127017
sg7
I01
sg8
g5
sg9
S'mark.koenig@enron.com'
p400
sg11
I300000
sg12
F6.194804901498971
sg13
g5
sg14
I2271
sg15
g5
sg16
I61
sg17
I150458
sg18
F0.2459016393442623
sg19
g5
sg20
F0.02232518955349621
sg21
I700000
sg22
I1920055
sg23
I53
sg24
I15
sg25
I1248318
sg26
I309946
sg27
I1587421
sg28
I671737
ssS'SAVAGE FRANK'
p401
(dp402
g3
g5
sg4
g5
sg6
g5
sg7
I00
sg8
I-121284
sg9
g5
sg11
g5
sg12
F0.0
sg13
g5
sg14
g5
sg15
g5
sg16
g5
sg17
g5
sg18
F0.0
sg19
I125034
sg20
F0.0
sg21
g5
sg22
g5
sg23
g5
sg24
g5
sg25
g5
sg26
g5
sg27
I3750
sg28
g5
ssS'IZZO LAWRENCE L'
p403
(dp404
g3
I496
sg4
g5
sg6
I28093
sg7
I00
sg8
g5
sg9
S'larry.izzo@enron.com'
p405
sg11
I312500
sg12
F68.25034594366396
sg13
g5
sg14
I437
sg15
g5
sg16
I19
sg17
I1553729
sg18
F0.2631578947368421
sg19
g5
sg20
F0.056451612903225805
sg21
g5
sg22
I5819980
sg23
I28
sg24
I5
sg25
I3654808
sg26
I85274
sg27
I1979596
sg28
I2165172
ssS'TILNEY ELIZABETH A'
p406
(dp407
g3
I460
sg4
g5
sg6
g5
sg7
I00
sg8
I-575000
sg9
S'elizabeth.tilney@enron.com'
p408
sg11
I275000
sg12
F4.7224526760950605
sg13
g5
sg14
I379
sg15
g5
sg16
I19
sg17
I152055
sg18
F0.5789473684210527
sg19
g5
sg20
F0.021739130434782608
sg21
I300000
sg22
I1168042
sg23
I10
sg24
I11
sg25
I576792
sg26
I247338
sg27
I399393
sg28
I591250
ssS'MARTIN AMANDA K'
p409
(dp410
g3
I1522
sg4
I85430
sg6
I8211
sg7
I00
sg8
g5
sg9
S'a..martin@enron.com'
p411
sg11
I5145434
sg12
F5.923842660814279
sg13
g5
sg14
I477
sg15
g5
sg16
I230
sg17
I2818454
sg18
F0.0
sg19
g5
sg20
F0.005256241787122208
sg21
g5
sg22
I2070306
sg23
I8
sg24
I0
sg25
g5
sg26
I349487
sg27
I8407016
sg28
I2070306
ssS'BUY RICHARD B'
p412
(dp413
g3
I3523
sg4
I649584
sg6
g5
sg7
I00
sg8
I-694862
sg9
S'rick.buy@enron.com'
p414
sg11
I769862
sg12
F10.420546610759168
sg13
g5
sg14
I2333
sg15
g5
sg16
I1053
sg17
I400572
sg18
F0.06742640075973409
sg19
g5
sg20
F0.04428044280442804
sg21
I900000
sg22
I3444470
sg23
I156
sg24
I71
sg25
I901657
sg26
I330546
sg27
I2355702
sg28
I2542813
ssS'GRAMM WENDY L'
p415
(dp416
g3
g5
sg4
g5
sg6
g5
sg7
I00
sg8
g5
sg9
g5
sg11
g5
sg12
F0.0
sg13
g5
sg14
g5
sg15
g5
sg16
g5
sg17
g5
sg18
F0.0
sg19
I119292
sg20
F0.0
sg21
g5
sg22
g5
sg23
g5
sg24
g5
sg25
g5
sg26
g5
sg27
I119292
sg28
g5
ssS'CAUSEY RICHARD A'
p417
(dp418
g3
I1892
sg4
g5
sg6
I30674
sg7
I01
sg8
I-235000
sg9
S'richard.causey@enron.com'
p419
sg11
I350000
sg12
F6.026322951715965
sg13
g5
sg14
I1585
sg15
g5
sg16
I49
sg17
I307895
sg18
F0.24489795918367346
sg19
g5
sg20
F0.0306553911205074
sg21
I1000000
sg22
I2502063
sg23
I58
sg24
I12
sg25
I2502063
sg26
I415189
sg27
I1868758
sg28
g5
ssS'TAYLOR MITCHELL S'
p420
(dp421
g3
I533
sg4
I227449
sg6
g5
sg7
I00
sg8
g5
sg9
S'mitchell.taylor@enron.com'
p422
sg11
g5
sg12
F14.120853348616588
sg13
g5
sg14
I300
sg15
g5
sg16
I29
sg17
g5
sg18
F0.0
sg19
g5
sg20
F0.0
sg21
I600000
sg22
I3745048
sg23
I0
sg24
I0
sg25
I563798
sg26
I265214
sg27
I1092663
sg28
I3181250
ssS'DONAHUE JR JEFFREY M'
p423
(dp424
g3
I865
sg4
g5
sg6
I96268
sg7
I00
sg8
I-300000
sg9
S'jeff.donahue@enron.com'
p425
sg11
g5
sg12
F3.8800578605245493
sg13
g5
sg14
I772
sg15
g5
sg16
I22
sg17
I891
sg18
F0.5
sg19
g5
sg20
F0.21734104046242775
sg21
I800000
sg22
I1080988
sg23
I188
sg24
I11
sg25
I315068
sg26
I278601
sg27
I875760
sg28
I765920
ssS'GLISAN JR BEN F'
p426
(dp427
g3
I873
sg4
g5
sg6
I125978
sg7
I01
sg8
g5
sg9
S'ben.glisan@enron.com'
p428
sg11
I71023
sg12
F2.8313337576143285
sg13
g5
sg14
I874
sg15
g5
sg16
I16
sg17
I200308
sg18
F0.375
sg19
g5
sg20
F0.05956471935853379
sg21
I600000
sg22
I778546
sg23
I52
sg24
I6
sg25
I393818
sg26
I274975
sg27
I1272284
sg28
I384728
ss.