(lp0
S'poi'
p1
aS'restricted_stock'
p2
aS'restricted_stock_deferred'
p3
aS'shared_receipt_with_poi'
p4
aS'total_stock_salary_ratio'
p5
aS'bonus'
p6
aS'salary'
p7
aS'total_stock_value'
p8
aS'long_term_incentive'
p9
aS'msg_ratio_from'
p10
aS'msg_ratio_to'
p11
a.