(dp0
S'METTS MARK'
p1
(dp2
S'to_messages'
p3
I807
sS'deferral_payments'
p4
S'NaN'
p5
sS'bonus'
p6
I600000
sS'total_stock_value'
p7
I585062
sS'expenses'
p8
I94299
sS'from_poi_to_this_person'
p9
I38
sS'ratio_of_recievedmsgs'
p10
cdecimal
Decimal
p11
(S'0.05956471935853379152348224513'
p12
tp13
Rp14
sS'from_this_person_to_poi'
p15
I1
sS'poi'
p16
I00
sS'deferred_income'
p17
g5
sS'restricted_stock'
p18
I585062
sS'long_term_incentive'
p19
g5
sS'salary'
p20
I365788
sS'total_payments'
p21
I1061827
sS'loan_advances'
p22
g5
sS'email_address'
p23
S'mark.metts@enron.com'
p24
sS'restricted_stock_deferred'
p25
g5
sS'ratio_of_sent_messages'
p26
g11
(S'0.375'
p27
tp28
Rp29
sS'shared_receipt_with_poi'
p30
I702
sS'inverse_expenses'
p31
g11
(S'0.000007937893917985680039371953833'
p32
tp33
Rp34
sS'exercised_stock_options'
p35
g5
sS'from_messages'
p36
I29
sS'other'
p37
I1740
sS'director_fees'
p38
g5
ssS'BAXTER JOHN C'
p39
(dp40
g3
g5
sg4
I1295738
sg6
I1200000
sg7
I10623258
sg8
I11200
sg9
g5
sg10
g11
(S'0.05956471935853379152348224513'
p41
tp42
Rp43
sg15
g5
sg16
I00
sg17
I-1386055
sg18
I3942714
sg19
I1586055
sg20
I267102
sg21
I5634343
sg22
g5
sg23
g5
sg25
g5
sg26
g11
(S'0.375'
p44
tp45
Rp46
sg30
g5
sg31
g11
(S'0.000007937893917985680039371953833'
p47
tp48
Rp49
sg35
I6680544
sg36
g5
sg37
I2660303
sg38
g5
ssS'ELLIOTT STEVEN'
p50
(dp51
g3
g5
sg4
g5
sg6
I350000
sg7
I6678735
sg8
I78552
sg9
g5
sg10
g11
(S'0.05956471935853379152348224513'
p52
tp53
Rp54
sg15
g5
sg16
I00
sg17
I-400729
sg18
I1788391
sg19
g5
sg20
I170941
sg21
I211725
sg22
g5
sg23
S'steven.elliott@enron.com'
p55
sg25
g5
sg26
g11
(S'0.375'
p56
tp57
Rp58
sg30
g5
sg31
g11
(S'0.000007937893917985680039371953833'
p59
tp60
Rp61
sg35
I4890344
sg36
g5
sg37
I12961
sg38
g5
ssS'CORDES WILLIAM R'
p62
(dp63
g3
I764
sg4
g5
sg6
g5
sg7
I1038185
sg8
g5
sg9
I10
sg10
g11
(S'0.05956471935853379152348224513'
p64
tp65
Rp66
sg15
I0
sg16
I00
sg17
g5
sg18
I386335
sg19
g5
sg20
g5
sg21
g5
sg22
g5
sg23
S'bill.cordes@enron.com'
p67
sg25
g5
sg26
g11
(S'0.375'
p68
tp69
Rp70
sg30
I58
sg31
g11
(S'0.000007937893917985680039371953833'
p71
tp72
Rp73
sg35
I651850
sg36
I12
sg37
g5
sg38
g5
ssS'HANNON KEVIN P'
p74
(dp75
g3
I1045
sg4
g5
sg6
I1500000
sg7
I6391065
sg8
I34039
sg9
I32
sg10
g11
(S'0.05956471935853379152348224513'
p76
tp77
Rp78
sg15
I21
sg16
I01
sg17
I-3117011
sg18
I853064
sg19
I1617011
sg20
I243293
sg21
I288682
sg22
g5
sg23
S'kevin.hannon@enron.com'
p79
sg25
g5
sg26
g11
(S'0.375'
p80
tp81
Rp82
sg30
I1035
sg31
g11
(S'0.000007937893917985680039371953833'
p83
tp84
Rp85
sg35
I5538001
sg36
I32
sg37
I11350
sg38
g5
ssS'MORDAUNT KRISTINA M'
p86
(dp87
g3
g5
sg4
g5
sg6
I325000
sg7
I208510
sg8
I35018
sg9
g5
sg10
g11
(S'0.05956471935853379152348224513'
p88
tp89
Rp90
sg15
g5
sg16
I00
sg17
g5
sg18
I208510
sg19
g5
sg20
I267093
sg21
I628522
sg22
g5
sg23
S'kristina.mordaunt@enron.com'
p91
sg25
g5
sg26
g11
(S'0.375'
p92
tp93
Rp94
sg30
g5
sg31
g11
(S'0.000007937893917985680039371953833'
p95
tp96
Rp97
sg35
g5
sg36
g5
sg37
I1411
sg38
g5
ssS'MEYER ROCKFORD G'
p98
(dp99
g3
I232
sg4
I1848227
sg6
g5
sg7
I955873
sg8
g5
sg9
I0
sg10
g11
(S'0.05956471935853379152348224513'
p100
tp101
Rp102
sg15
I0
sg16
I00
sg17
g5
sg18
I462384
sg19
g5
sg20
g5
sg21
I1848227
sg22
g5
sg23
S'rockford.meyer@enron.com'
p103
sg25
g5
sg26
g11
(S'0.375'
p104
tp105
Rp106
sg30
I22
sg31
g11
(S'0.000007937893917985680039371953833'
p107
tp108
Rp109
sg35
I493489
sg36
I28
sg37
g5
sg38
g5
ssS'MCMAHON JEFFREY'
p110
(dp111
g3
I2355
sg4
g5
sg6
I2600000
sg7
I1662855
sg8
I137108
sg9
I58
sg10
g11
(S'0.05956471935853379152348224513'
p112
tp113
Rp114
sg15
I26
sg16
I00
sg17
g5
sg18
I558801
sg19
I694862
sg20
I370448
sg21
I4099771
sg22
g5
sg23
S'jeffrey.mcmahon@enron.com'
p115
sg25
g5
sg26
g11
(S'0.375'
p116
tp117
Rp118
sg30
I2228
sg31
g11
(S'0.000007937893917985680039371953833'
p119
tp120
Rp121
sg35
I1104054
sg36
I48
sg37
I297353
sg38
g5
ssS'HORTON STANLEY C'
p122
(dp123
g3
I2350
sg4
I3131860
sg6
g5
sg7
I7256648
sg8
g5
sg9
I44
sg10
g11
(S'0.05956471935853379152348224513'
p124
tp125
Rp126
sg15
I15
sg16
I00
sg17
g5
sg18
I2046079
sg19
g5
sg20
g5
sg21
I3131860
sg22
g5
sg23
S'stanley.horton@enron.com'
p127
sg25
g5
sg26
g11
(S'0.375'
p128
tp129
Rp130
sg30
I1074
sg31
g11
(S'0.000007937893917985680039371953833'
p131
tp132
Rp133
sg35
I5210569
sg36
I1073
sg37
g5
sg38
g5
ssS'PIPER GREGORY F'
p134
(dp135
g3
I1238
sg4
I1130036
sg6
I400000
sg7
I880290
sg8
I43057
sg9
I61
sg10
g11
(S'0.05956471935853379152348224513'
p136
tp137
Rp138
sg15
I48
sg16
I00
sg17
I-33333
sg18
I409554
sg19
g5
sg20
I197091
sg21
I1737629
sg22
g5
sg23
S'greg.piper@enron.com'
p139
sg25
I-409554
sg26
g11
(S'0.375'
p140
tp141
Rp142
sg30
I742
sg31
g11
(S'0.000007937893917985680039371953833'
p143
tp144
Rp145
sg35
I880290
sg36
I222
sg37
I778
sg38
g5
ssS'HUMPHREY GENE E'
p146
(dp147
g3
I128
sg4
I2964506
sg6
g5
sg7
I2282768
sg8
I4994
sg9
I10
sg10
g11
(S'0.05956471935853379152348224513'
p148
tp149
Rp150
sg15
I17
sg16
I00
sg17
g5
sg18
g5
sg19
g5
sg20
I130724
sg21
I3100224
sg22
g5
sg23
S'gene.humphrey@enron.com'
p151
sg25
g5
sg26
g11
(S'0.375'
p152
tp153
Rp154
sg30
I119
sg31
g11
(S'0.000007937893917985680039371953833'
p155
tp156
Rp157
sg35
I2282768
sg36
I17
sg37
g5
sg38
g5
ssS'UMANOFF ADAM S'
p158
(dp159
g3
I111
sg4
g5
sg6
I788750
sg7
g5
sg8
I53122
sg9
I12
sg10
g11
(S'0.05956471935853379152348224513'
p160
tp161
Rp162
sg15
I0
sg16
I00
sg17
g5
sg18
g5
sg19
g5
sg20
I288589
sg21
I1130461
sg22
g5
sg23
S'adam.umanoff@enron.com'
p163
sg25
g5
sg26
g11
(S'0.375'
p164
tp165
Rp166
sg30
I41
sg31
g11
(S'0.000007937893917985680039371953833'
p167
tp168
Rp169
sg35
g5
sg36
I18
sg37
g5
sg38
g5
ssS'BLACHMAN JEREMY M'
p170
(dp171
g3
I2475
sg4
g5
sg6
I850000
sg7
I954354
sg8
I84208
sg9
I25
sg10
g11
(S'0.05956471935853379152348224513'
p172
tp173
Rp174
sg15
I2
sg16
I00
sg17
g5
sg18
I189041
sg19
I831809
sg20
I248546
sg21
I2014835
sg22
g5
sg23
S'jeremy.blachman@enron.com'
p175
sg25
g5
sg26
g11
(S'0.375'
p176
tp177
Rp178
sg30
I2326
sg31
g11
(S'0.000007937893917985680039371953833'
p179
tp180
Rp181
sg35
I765313
sg36
I14
sg37
I272
sg38
g5
ssS'SUNDE MARTIN'
p182
(dp183
g3
I2647
sg4
g5
sg6
I700000
sg7
I698920
sg8
g5
sg9
I37
sg10
g11
(S'0.05956471935853379152348224513'
p184
tp185
Rp186
sg15
I13
sg16
I00
sg17
g5
sg18
I698920
sg19
I476451
sg20
I257486
sg21
I1545059
sg22
g5
sg23
S'marty.sunde@enron.com'
p187
sg25
g5
sg26
g11
(S'0.375'
p188
tp189
Rp190
sg30
I2565
sg31
g11
(S'0.000007937893917985680039371953833'
p191
tp192
Rp193
sg35
g5
sg36
I38
sg37
I111122
sg38
g5
ssS'GIBBS DANA R'
p194
(dp195
g3
I169
sg4
I504610
sg6
g5
sg7
I2218275
sg8
g5
sg9
I0
sg10
g11
(S'0.05956471935853379152348224513'
p196
tp197
Rp198
sg15
I0
sg16
I00
sg17
g5
sg18
g5
sg19
I461912
sg20
g5
sg21
I966522
sg22
g5
sg23
S'dana.gibbs@enron.com'
p199
sg25
g5
sg26
g11
(S'0.375'
p200
tp201
Rp202
sg30
I23
sg31
g11
(S'0.000007937893917985680039371953833'
p203
tp204
Rp205
sg35
I2218275
sg36
I12
sg37
g5
sg38
g5
ssS'LOWRY CHARLES P'
p206
(dp207
g3
g5
sg4
g5
sg6
g5
sg7
I372205
sg8
g5
sg9
g5
sg10
g11
(S'0.05956471935853379152348224513'
p208
tp209
Rp210
sg15
g5
sg16
I00
sg17
g5
sg18
I153686
sg19
g5
sg20
g5
sg21
g5
sg22
g5
sg23
g5
sg25
I-153686
sg26
g11
(S'0.375'
p211
tp212
Rp213
sg30
g5
sg31
g11
(S'0.000007937893917985680039371953833'
p214
tp215
Rp216
sg35
I372205
sg36
g5
sg37
g5
sg38
g5
ssS'COLWELL WESLEY'
p217
(dp218
g3
I1758
sg4
I27610
sg6
I1200000
sg7
I698242
sg8
I16514
sg9
I240
sg10
g11
(S'0.05956471935853379152348224513'
p219
tp220
Rp221
sg15
I11
sg16
I01
sg17
I-144062
sg18
I698242
sg19
g5
sg20
I288542
sg21
I1490344
sg22
g5
sg23
S'wes.colwell@enron.com'
p222
sg25
g5
sg26
g11
(S'0.375'
p223
tp224
Rp225
sg30
I1132
sg31
g11
(S'0.000007937893917985680039371953833'
p226
tp227
Rp228
sg35
g5
sg36
I40
sg37
I101740
sg38
g5
ssS'MULLER MARK S'
p229
(dp230
g3
I136
sg4
I842924
sg6
I1100000
sg7
I1416848
sg8
g5
sg9
I12
sg10
g11
(S'0.05956471935853379152348224513'
p231
tp232
Rp233
sg15
I0
sg16
I00
sg17
I-719000
sg18
I360528
sg19
I1725545
sg20
I251654
sg21
I3202070
sg22
g5
sg23
S's..muller@enron.com'
p234
sg25
g5
sg26
g11
(S'0.375'
p235
tp236
Rp237
sg30
I114
sg31
g11
(S'0.000007937893917985680039371953833'
p238
tp239
Rp240
sg35
I1056320
sg36
I16
sg37
I947
sg38
g5
ssS'JACKSON CHARLENE R'
p241
(dp242
g3
I258
sg4
g5
sg6
I250000
sg7
I725735
sg8
I10181
sg9
I25
sg10
g11
(S'0.05956471935853379152348224513'
p243
tp244
Rp245
sg15
I19
sg16
I00
sg17
g5
sg18
I540672
sg19
g5
sg20
I288558
sg21
I551174
sg22
g5
sg23
S'charlene.jackson@enron.com'
p246
sg25
g5
sg26
g11
(S'0.375'
p247
tp248
Rp249
sg30
I117
sg31
g11
(S'0.000007937893917985680039371953833'
p250
tp251
Rp252
sg35
I185063
sg36
I56
sg37
I2435
sg38
g5
ssS'WESTFAHL RICHARD K'
p253
(dp254
g3
g5
sg4
g5
sg6
g5
sg7
I384930
sg8
I51870
sg9
g5
sg10
g11
(S'0.05956471935853379152348224513'
p255
tp256
Rp257
sg15
g5
sg16
I00
sg17
I-10800
sg18
I384930
sg19
I256191
sg20
I63744
sg21
I762135
sg22
g5
sg23
S'dick.westfahl@enron.com'
p258
sg25
g5
sg26
g11
(S'0.375'
p259
tp260
Rp261
sg30
g5
sg31
g11
(S'0.000007937893917985680039371953833'
p262
tp263
Rp264
sg35
g5
sg36
g5
sg37
I401130
sg38
g5
ssS'WALTERS GARETH W'
p265
(dp266
g3
g5
sg4
I53625
sg6
g5
sg7
I1030329
sg8
I33785
sg9
g5
sg10
g11
(S'0.05956471935853379152348224513'
p267
tp268
Rp269
sg15
g5
sg16
I00
sg17
g5
sg18
g5
sg19
g5
sg20
g5
sg21
I87410
sg22
g5
sg23
g5
sg25
g5
sg26
g11
(S'0.375'
p270
tp271
Rp272
sg30
g5
sg31
g11
(S'0.000007937893917985680039371953833'
p273
tp274
Rp275
sg35
I1030329
sg36
g5
sg37
g5
sg38
g5
ssS'WALLS JR ROBERT H'
p276
(dp277
g3
I671
sg4
g5
sg6
I850000
sg7
I5898997
sg8
I50936
sg9
I17
sg10
g11
(S'0.05956471935853379152348224513'
p278
tp279
Rp280
sg15
I0
sg16
I00
sg17
g5
sg18
I1552453
sg19
I540751
sg20
I357091
sg21
I1798780
sg22
g5
sg23
S'rob.walls@enron.com'
p281
sg25
g5
sg26
g11
(S'0.375'
p282
tp283
Rp284
sg30
I215
sg31
g11
(S'0.000007937893917985680039371953833'
p285
tp286
Rp287
sg35
I4346544
sg36
I146
sg37
I2
sg38
g5
ssS'KITCHEN LOUISE'
p288
(dp289
g3
I8305
sg4
g5
sg6
I3100000
sg7
I547143
sg8
I5774
sg9
I251
sg10
g11
(S'0.05956471935853379152348224513'
p290
tp291
Rp292
sg15
I194
sg16
I00
sg17
g5
sg18
I466101
sg19
g5
sg20
I271442
sg21
I3471141
sg22
g5
sg23
S'louise.kitchen@enron.com'
p293
sg25
g5
sg26
g11
(S'0.375'
p294
tp295
Rp296
sg30
I3669
sg31
g11
(S'0.000007937893917985680039371953833'
p297
tp298
Rp299
sg35
I81042
sg36
I1728
sg37
I93925
sg38
g5
ssS'CHAN RONNIE'
p300
(dp301
g3
g5
sg4
g5
sg6
g5
sg7
g5
sg8
g5
sg9
g5
sg10
g11
(S'0.05956471935853379152348224513'
p302
tp303
Rp304
sg15
g5
sg16
I00
sg17
I-98784
sg18
I32460
sg19
g5
sg20
g5
sg21
g5
sg22
g5
sg23
g5
sg25
I-32460
sg26
g11
(S'0.375'
p305
tp306
Rp307
sg30
g5
sg31
g11
(S'0.000007937893917985680039371953833'
p308
tp309
Rp310
sg35
g5
sg36
g5
sg37
g5
sg38
I98784
ssS'BELFER ROBERT'
p311
(dp312
g3
g5
sg4
I-102500
sg6
g5
sg7
I-44093
sg8
g5
sg9
g5
sg10
g11
(S'0.05956471935853379152348224513'
p313
tp314
Rp315
sg15
g5
sg16
I00
sg17
g5
sg18
g5
sg19
g5
sg20
g5
sg21
I102500
sg22
g5
sg23
g5
sg25
I44093
sg26
g11
(S'0.375'
p316
tp317
Rp318
sg30
g5
sg31
g11
(S'0.000007937893917985680039371953833'
p319
tp320
Rp321
sg35
I3285
sg36
g5
sg37
g5
sg38
I3285
ssS'SHANKMAN JEFFREY A'
p322
(dp323
g3
I3221
sg4
g5
sg6
I2000000
sg7
I2072035
sg8
I178979
sg9
I94
sg10
g11
(S'0.05956471935853379152348224513'
p324
tp325
Rp326
sg15
I83
sg16
I00
sg17
g5
sg18
I630137
sg19
I554422
sg20
I304110
sg21
I3038702
sg22
g5
sg23
S'jeffrey.shankman@enron.com'
p327
sg25
g5
sg26
g11
(S'0.375'
p328
tp329
Rp330
sg30
I1730
sg31
g11
(S'0.000007937893917985680039371953833'
p331
tp332
Rp333
sg35
I1441898
sg36
I2681
sg37
I1191
sg38
g5
ssS'WODRASKA JOHN'
p334
(dp335
g3
g5
sg4
g5
sg6
g5
sg7
g5
sg8
g5
sg9
g5
sg10
g11
(S'0.05956471935853379152348224513'
p336
tp337
Rp338
sg15
g5
sg16
I00
sg17
g5
sg18
g5
sg19
g5
sg20
g5
sg21
I189583
sg22
g5
sg23
S'john.wodraska@enron.com'
p339
sg25
g5
sg26
g11
(S'0.375'
p340
tp341
Rp342
sg30
g5
sg31
g11
(S'0.000007937893917985680039371953833'
p343
tp344
Rp345
sg35
g5
sg36
g5
sg37
I189583
sg38
g5
ssS'BERGSIEKER RICHARD P'
p346
(dp347
g3
I383
sg4
g5
sg6
I250000
sg7
I659249
sg8
I59175
sg9
I4
sg10
g11
(S'0.05956471935853379152348224513'
p348
tp349
Rp350
sg15
I0
sg16
I00
sg17
I-485813
sg18
I659249
sg19
I180250
sg20
I187922
sg21
I618850
sg22
g5
sg23
S'rick.bergsieker@enron.com'
p351
sg25
g5
sg26
g11
(S'0.375'
p352
tp353
Rp354
sg30
I233
sg31
g11
(S'0.000007937893917985680039371953833'
p355
tp356
Rp357
sg35
g5
sg36
I59
sg37
I427316
sg38
g5
ssS'URQUHART JOHN A'
p358
(dp359
g3
g5
sg4
g5
sg6
g5
sg7
g5
sg8
I228656
sg9
g5
sg10
g11
(S'0.05956471935853379152348224513'
p360
tp361
Rp362
sg15
g5
sg16
I00
sg17
I-36666
sg18
g5
sg19
g5
sg20
g5
sg21
I228656
sg22
g5
sg23
g5
sg25
g5
sg26
g11
(S'0.375'
p363
tp364
Rp365
sg30
g5
sg31
g11
(S'0.000007937893917985680039371953833'
p366
tp367
Rp368
sg35
g5
sg36
g5
sg37
g5
sg38
I36666
ssS'BIBI PHILIPPE A'
p369
(dp370
g3
I1607
sg4
g5
sg6
I1000000
sg7
I1843816
sg8
I38559
sg9
I23
sg10
g11
(S'0.05956471935853379152348224513'
p371
tp372
Rp373
sg15
I8
sg16
I00
sg17
g5
sg18
I378082
sg19
I369721
sg20
I213625
sg21
I2047593
sg22
g5
sg23
S'philippe.bibi@enron.com'
p374
sg25
g5
sg26
g11
(S'0.375'
p375
tp376
Rp377
sg30
I1336
sg31
g11
(S'0.000007937893917985680039371953833'
p378
tp379
Rp380
sg35
I1465734
sg36
I40
sg37
I425688
sg38
g5
ssS'RIEKER PAULA H'
p381
(dp382
g3
I1328
sg4
I214678
sg6
I700000
sg7
I1918887
sg8
I33271
sg9
I35
sg10
g11
(S'0.05956471935853379152348224513'
p383
tp384
Rp385
sg15
I48
sg16
I01
sg17
I-100000
sg18
I283649
sg19
g5
sg20
I249201
sg21
I1099100
sg22
g5
sg23
S'paula.rieker@enron.com'
p386
sg25
g5
sg26
g11
(S'0.375'
p387
tp388
Rp389
sg30
I1258
sg31
g11
(S'0.000007937893917985680039371953833'
p390
tp391
Rp392
sg35
I1635238
sg36
I82
sg37
I1950
sg38
g5
ssS'WHALEY DAVID A'
p393
(dp394
g3
g5
sg4
g5
sg6
g5
sg7
I98718
sg8
g5
sg9
g5
sg10
g11
(S'0.05956471935853379152348224513'
p395
tp396
Rp397
sg15
g5
sg16
I00
sg17
g5
sg18
g5
sg19
g5
sg20
g5
sg21
g5
sg22
g5
sg23
g5
sg25
g5
sg26
g11
(S'0.375'
p398
tp399
Rp400
sg30
g5
sg31
g11
(S'0.000007937893917985680039371953833'
p401
tp402
Rp403
sg35
I98718
sg36
g5
sg37
g5
sg38
g5
ssS'BECK SALLY W'
p404
(dp405
g3
I7315
sg4
g5
sg6
I700000
sg7
I126027
sg8
I37172
sg9
I144
sg10
g11
(S'0.05956471935853379152348224513'
p406
tp407
Rp408
sg15
I386
sg16
I00
sg17
g5
sg18
I126027
sg19
g5
sg20
I231330
sg21
I969068
sg22
g5
sg23
S'sally.beck@enron.com'
p409
sg25
g5
sg26
g11
(S'0.375'
p410
tp411
Rp412
sg30
I2639
sg31
g11
(S'0.000007937893917985680039371953833'
p413
tp414
Rp415
sg35
g5
sg36
I4343
sg37
I566
sg38
g5
ssS'HAUG DAVID L'
p416
(dp417
g3
I573
sg4
g5
sg6
g5
sg7
I2217299
sg8
I475
sg9
I4
sg10
g11
(S'0.05956471935853379152348224513'
p418
tp419
Rp420
sg15
I7
sg16
I00
sg17
g5
sg18
I2217299
sg19
g5
sg20
g5
sg21
I475
sg22
g5
sg23
S'david.haug@enron.com'
p421
sg25
g5
sg26
g11
(S'0.375'
p422
tp423
Rp424
sg30
I471
sg31
g11
(S'0.000007937893917985680039371953833'
p425
tp426
Rp427
sg35
g5
sg36
I19
sg37
g5
sg38
g5
ssS'ECHOLS JOHN B'
p428
(dp429
g3
g5
sg4
g5
sg6
I200000
sg7
I1008941
sg8
I21530
sg9
g5
sg10
g11
(S'0.05956471935853379152348224513'
p430
tp431
Rp432
sg15
g5
sg16
I00
sg17
g5
sg18
I407503
sg19
I2234774
sg20
I182245
sg21
I2692324
sg22
g5
sg23
S'john.echols@enron.com'
p433
sg25
g5
sg26
g11
(S'0.375'
p434
tp435
Rp436
sg30
g5
sg31
g11
(S'0.000007937893917985680039371953833'
p437
tp438
Rp439
sg35
I601438
sg36
g5
sg37
I53775
sg38
g5
ssS'MENDELSOHN JOHN'
p440
(dp441
g3
g5
sg4
g5
sg6
g5
sg7
g5
sg8
I148
sg9
g5
sg10
g11
(S'0.05956471935853379152348224513'
p442
tp443
Rp444
sg15
g5
sg16
I00
sg17
I-103750
sg18
g5
sg19
g5
sg20
g5
sg21
I148
sg22
g5
sg23
g5
sg25
g5
sg26
g11
(S'0.375'
p445
tp446
Rp447
sg30
g5
sg31
g11
(S'0.000007937893917985680039371953833'
p448
tp449
Rp450
sg35
g5
sg36
g5
sg37
g5
sg38
I103750
ssS'HICKERSON GARY J'
p451
(dp452
g3
I1320
sg4
g5
sg6
I1700000
sg7
I441096
sg8
I98849
sg9
I40
sg10
g11
(S'0.05956471935853379152348224513'
p453
tp454
Rp455
sg15
I1
sg16
I00
sg17
g5
sg18
I441096
sg19
I69223
sg20
I211788
sg21
I2081796
sg22
g5
sg23
S'gary.hickerson@enron.com'
p456
sg25
g5
sg26
g11
(S'0.375'
p457
tp458
Rp459
sg30
I900
sg31
g11
(S'0.000007937893917985680039371953833'
p460
tp461
Rp462
sg35
g5
sg36
I27
sg37
I1936
sg38
g5
ssS'CLINE KENNETH W'
p463
(dp464
g3
g5
sg4
g5
sg6
g5
sg7
I189518
sg8
g5
sg9
g5
sg10
g11
(S'0.05956471935853379152348224513'
p465
tp466
Rp467
sg15
g5
sg16
I00
sg17
g5
sg18
I662086
sg19
g5
sg20
g5
sg21
g5
sg22
g5
sg23
g5
sg25
I-472568
sg26
g11
(S'0.375'
p468
tp469
Rp470
sg30
g5
sg31
g11
(S'0.000007937893917985680039371953833'
p471
tp472
Rp473
sg35
g5
sg36
g5
sg37
g5
sg38
g5
ssS'LEWIS RICHARD'
p474
(dp475
g3
I952
sg4
g5
sg6
g5
sg7
I850477
sg8
g5
sg9
I10
sg10
g11
(S'0.05956471935853379152348224513'
p476
tp477
Rp478
sg15
I0
sg16
I00
sg17
g5
sg18
g5
sg19
g5
sg20
g5
sg21
g5
sg22
g5
sg23
S'richard.lewis@enron.com'
p479
sg25
g5
sg26
g11
(S'0.375'
p480
tp481
Rp482
sg30
I739
sg31
g11
(S'0.000007937893917985680039371953833'
p483
tp484
Rp485
sg35
I850477
sg36
I26
sg37
g5
sg38
g5
ssS'HAYES ROBERT E'
p486
(dp487
g3
I504
sg4
I7961
sg6
g5
sg7
I151418
sg8
g5
sg9
I16
sg10
g11
(S'0.05956471935853379152348224513'
p488
tp489
Rp490
sg15
I0
sg16
I00
sg17
g5
sg18
I151418
sg19
g5
sg20
g5
sg21
I7961
sg22
g5
sg23
S'robert.hayes@enron.com'
p491
sg25
g5
sg26
g11
(S'0.375'
p492
tp493
Rp494
sg30
I50
sg31
g11
(S'0.000007937893917985680039371953833'
p495
tp496
Rp497
sg35
g5
sg36
I12
sg37
g5
sg38
g5
ssS'MCCARTY DANNY J'
p498
(dp499
g3
I1433
sg4
g5
sg6
g5
sg7
I758931
sg8
g5
sg9
I25
sg10
g11
(S'0.05956471935853379152348224513'
p500
tp501
Rp502
sg15
I2
sg16
I00
sg17
g5
sg18
I94556
sg19
g5
sg20
g5
sg21
g5
sg22
g5
sg23
S'danny.mccarty@enron.com'
p503
sg25
g5
sg26
g11
(S'0.375'
p504
tp505
Rp506
sg30
I508
sg31
g11
(S'0.000007937893917985680039371953833'
p507
tp508
Rp509
sg35
I664375
sg36
I215
sg37
g5
sg38
g5
ssS'KOPPER MICHAEL J'
p510
(dp511
g3
g5
sg4
g5
sg6
I800000
sg7
I985032
sg8
I118134
sg9
g5
sg10
g11
(S'0.05956471935853379152348224513'
p512
tp513
Rp514
sg15
g5
sg16
I01
sg17
g5
sg18
I985032
sg19
I602671
sg20
I224305
sg21
I2652612
sg22
g5
sg23
S'michael.kopper@enron.com'
p515
sg25
g5
sg26
g11
(S'0.375'
p516
tp517
Rp518
sg30
g5
sg31
g11
(S'0.000007937893917985680039371953833'
p519
tp520
Rp521
sg35
g5
sg36
g5
sg37
I907502
sg38
g5
ssS'LEFF DANIEL P'
p522
(dp523
g3
I2822
sg4
g5
sg6
I1000000
sg7
I360528
sg8
g5
sg9
I67
sg10
g11
(S'0.05956471935853379152348224513'
p524
tp525
Rp526
sg15
I14
sg16
I00
sg17
g5
sg18
I360528
sg19
I1387399
sg20
I273746
sg21
I2664228
sg22
g5
sg23
S'dan.leff@enron.com'
p527
sg25
g5
sg26
g11
(S'0.375'
p528
tp529
Rp530
sg30
I2672
sg31
g11
(S'0.000007937893917985680039371953833'
p531
tp532
Rp533
sg35
g5
sg36
I63
sg37
I3083
sg38
g5
ssS'LAVORATO JOHN J'
p534
(dp535
g3
I7259
sg4
g5
sg6
I8000000
sg7
I5167144
sg8
I49537
sg9
I528
sg10
g11
(S'0.05956471935853379152348224513'
p536
tp537
Rp538
sg15
I411
sg16
I00
sg17
g5
sg18
I1008149
sg19
I2035380
sg20
I339288
sg21
I10425757
sg22
g5
sg23
S'john.lavorato@enron.com'
p539
sg25
g5
sg26
g11
(S'0.375'
p540
tp541
Rp542
sg30
I3962
sg31
g11
(S'0.000007937893917985680039371953833'
p543
tp544
Rp545
sg35
I4158995
sg36
I2585
sg37
I1552
sg38
g5
ssS'BERBERIAN DAVID'
p546
(dp547
g3
g5
sg4
g5
sg6
g5
sg7
I2493616
sg8
I11892
sg9
g5
sg10
g11
(S'0.05956471935853379152348224513'
p548
tp549
Rp550
sg15
g5
sg16
I00
sg17
g5
sg18
I869220
sg19
g5
sg20
I216582
sg21
I228474
sg22
g5
sg23
S'david.berberian@enron.com'
p551
sg25
g5
sg26
g11
(S'0.375'
p552
tp553
Rp554
sg30
g5
sg31
g11
(S'0.000007937893917985680039371953833'
p555
tp556
Rp557
sg35
I1624396
sg36
g5
sg37
g5
sg38
g5
ssS'DETMERING TIMOTHY J'
p558
(dp559
g3
g5
sg4
I875307
sg6
I425000
sg7
I2027865
sg8
I52255
sg9
g5
sg10
g11
(S'0.05956471935853379152348224513'
p560
tp561
Rp562
sg15
g5
sg16
I00
sg17
I-775241
sg18
I315068
sg19
I415657
sg20
I210500
sg21
I1204583
sg22
g5
sg23
S'timothy.detmering@enron.com'
p563
sg25
I-315068
sg26
g11
(S'0.375'
p564
tp565
Rp566
sg30
g5
sg31
g11
(S'0.000007937893917985680039371953833'
p567
tp568
Rp569
sg35
I2027865
sg36
g5
sg37
I1105
sg38
g5
ssS'WAKEHAM JOHN'
p570
(dp571
g3
g5
sg4
g5
sg6
g5
sg7
g5
sg8
I103773
sg9
g5
sg10
g11
(S'0.05956471935853379152348224513'
p572
tp573
Rp574
sg15
g5
sg16
I00
sg17
g5
sg18
g5
sg19
g5
sg20
g5
sg21
I213071
sg22
g5
sg23
g5
sg25
g5
sg26
g11
(S'0.375'
p575
tp576
Rp577
sg30
g5
sg31
g11
(S'0.000007937893917985680039371953833'
p578
tp579
Rp580
sg35
g5
sg36
g5
sg37
g5
sg38
I109298
ssS'POWERS WILLIAM'
p581
(dp582
g3
I653
sg4
g5
sg6
g5
sg7
g5
sg8
g5
sg9
I0
sg10
g11
(S'0.05956471935853379152348224513'
p583
tp584
Rp585
sg15
I0
sg16
I00
sg17
I-17500
sg18
g5
sg19
g5
sg20
g5
sg21
g5
sg22
g5
sg23
S'ken.powers@enron.com'
p586
sg25
g5
sg26
g11
(S'0.375'
p587
tp588
Rp589
sg30
I12
sg31
g11
(S'0.000007937893917985680039371953833'
p590
tp591
Rp592
sg35
g5
sg36
I26
sg37
g5
sg38
I17500
ssS'GOLD JOSEPH'
p593
(dp594
g3
g5
sg4
g5
sg6
I750000
sg7
I877611
sg8
g5
sg9
g5
sg10
g11
(S'0.05956471935853379152348224513'
p595
tp596
Rp597
sg15
g5
sg16
I00
sg17
g5
sg18
I441096
sg19
I304805
sg20
I272880
sg21
I2146973
sg22
g5
sg23
S'joe.gold@enron.com'
p598
sg25
g5
sg26
g11
(S'0.375'
p599
tp600
Rp601
sg30
g5
sg31
g11
(S'0.000007937893917985680039371953833'
p602
tp603
Rp604
sg35
I436515
sg36
g5
sg37
I819288
sg38
g5
ssS'BANNANTINE JAMES M'
p605
(dp606
g3
I566
sg4
g5
sg6
g5
sg7
I5243487
sg8
I56301
sg9
I39
sg10
g11
(S'0.05956471935853379152348224513'
p607
tp608
Rp609
sg15
I0
sg16
I00
sg17
I-5104
sg18
I1757552
sg19
g5
sg20
I477
sg21
I916197
sg22
g5
sg23
S'james.bannantine@enron.com'
p610
sg25
I-560222
sg26
g11
(S'0.375'
p611
tp612
Rp613
sg30
I465
sg31
g11
(S'0.000007937893917985680039371953833'
p614
tp615
Rp616
sg35
I4046157
sg36
I29
sg37
I864523
sg38
g5
ssS'DUNCAN JOHN H'
p617
(dp618
g3
g5
sg4
g5
sg6
g5
sg7
I371750
sg8
g5
sg9
g5
sg10
g11
(S'0.05956471935853379152348224513'
p619
tp620
Rp621
sg15
g5
sg16
I00
sg17
I-25000
sg18
g5
sg19
g5
sg20
g5
sg21
I77492
sg22
g5
sg23
g5
sg25
g5
sg26
g11
(S'0.375'
p622
tp623
Rp624
sg30
g5
sg31
g11
(S'0.000007937893917985680039371953833'
p625
tp626
Rp627
sg35
I371750
sg36
g5
sg37
g5
sg38
I102492
ssS'SHAPIRO RICHARD S'
p628
(dp629
g3
I15149
sg4
g5
sg6
I650000
sg7
I987001
sg8
I137767
sg9
I74
sg10
g11
(S'0.05956471935853379152348224513'
p630
tp631
Rp632
sg15
I65
sg16
I00
sg17
g5
sg18
I379164
sg19
g5
sg20
I269076
sg21
I1057548
sg22
g5
sg23
S'richard.shapiro@enron.com'
p633
sg25
g5
sg26
g11
(S'0.375'
p634
tp635
Rp636
sg30
I4527
sg31
g11
(S'0.000007937893917985680039371953833'
p637
tp638
Rp639
sg35
I607837
sg36
I1215
sg37
I705
sg38
g5
ssS'SHERRIFF JOHN R'
p640
(dp641
g3
I3187
sg4
g5
sg6
I1500000
sg7
I3128982
sg8
g5
sg9
I28
sg10
g11
(S'0.05956471935853379152348224513'
p642
tp643
Rp644
sg15
I23
sg16
I00
sg17
g5
sg18
I1293424
sg19
I554422
sg20
I428780
sg21
I4335388
sg22
g5
sg23
S'john.sherriff@enron.com'
p645
sg25
g5
sg26
g11
(S'0.375'
p646
tp647
Rp648
sg30
I2103
sg31
g11
(S'0.000007937893917985680039371953833'
p649
tp650
Rp651
sg35
I1835558
sg36
I92
sg37
I1852186
sg38
g5
ssS'SHELBY REX'
p652
(dp653
g3
I225
sg4
g5
sg6
I200000
sg7
I2493616
sg8
I22884
sg9
I13
sg10
g11
(S'0.05956471935853379152348224513'
p654
tp655
Rp656
sg15
I14
sg16
I01
sg17
I-4167
sg18
I869220
sg19
g5
sg20
I211844
sg21
I2003885
sg22
g5
sg23
S'rex.shelby@enron.com'
p657
sg25
g5
sg26
g11
(S'0.375'
p658
tp659
Rp660
sg30
I91
sg31
g11
(S'0.000007937893917985680039371953833'
p661
tp662
Rp663
sg35
I1624396
sg36
I39
sg37
I1573324
sg38
g5
ssS'LEMAISTRE CHARLES'
p664
(dp665
g3
g5
sg4
g5
sg6
g5
sg7
I412878
sg8
g5
sg9
g5
sg10
g11
(S'0.05956471935853379152348224513'
p666
tp667
Rp668
sg15
g5
sg16
I00
sg17
I-25000
sg18
g5
sg19
g5
sg20
g5
sg21
I87492
sg22
g5
sg23
g5
sg25
g5
sg26
g11
(S'0.375'
p669
tp670
Rp671
sg30
g5
sg31
g11
(S'0.000007937893917985680039371953833'
p672
tp673
Rp674
sg35
I412878
sg36
g5
sg37
g5
sg38
I112492
ssS'DEFFNER JOSEPH M'
p675
(dp676
g3
I714
sg4
g5
sg6
I600000
sg7
I159211
sg8
I41626
sg9
I115
sg10
g11
(S'0.05956471935853379152348224513'
p677
tp678
Rp679
sg15
I4
sg16
I00
sg17
g5
sg18
I141833
sg19
I335349
sg20
I206121
sg21
I1208649
sg22
g5
sg23
S'joseph.deffner@enron.com'
p680
sg25
g5
sg26
g11
(S'0.375'
p681
tp682
Rp683
sg30
I552
sg31
g11
(S'0.000007937893917985680039371953833'
p684
tp685
Rp686
sg35
I17378
sg36
I74
sg37
I25553
sg38
g5
ssS'KISHKILL JOSEPH G'
p687
(dp688
g3
g5
sg4
g5
sg6
g5
sg7
I1034346
sg8
I116335
sg9
g5
sg10
g11
(S'0.05956471935853379152348224513'
p689
tp690
Rp691
sg15
g5
sg16
I00
sg17
I-51042
sg18
I1034346
sg19
g5
sg20
I174246
sg21
I704896
sg22
g5
sg23
S'joe.kishkill@enron.com'
p692
sg25
g5
sg26
g11
(S'0.375'
p693
tp694
Rp695
sg30
g5
sg31
g11
(S'0.000007937893917985680039371953833'
p696
tp697
Rp698
sg35
g5
sg36
g5
sg37
I465357
sg38
g5
ssS'WHALLEY LAWRENCE G'
p699
(dp700
g3
I6019
sg4
g5
sg6
I3000000
sg7
I6079137
sg8
I57838
sg9
I186
sg10
g11
(S'0.05956471935853379152348224513'
p701
tp702
Rp703
sg15
I24
sg16
I00
sg17
g5
sg18
I2796177
sg19
I808346
sg20
I510364
sg21
I4677574
sg22
g5
sg23
S'greg.whalley@enron.com'
p704
sg25
g5
sg26
g11
(S'0.375'
p705
tp706
Rp707
sg30
I3920
sg31
g11
(S'0.000007937893917985680039371953833'
p708
tp709
Rp710
sg35
I3282960
sg36
I556
sg37
I301026
sg38
g5
ssS'MCCONNELL MICHAEL S'
p711
(dp712
g3
I3329
sg4
g5
sg6
I1100000
sg7
I3101279
sg8
I81364
sg9
I92
sg10
g11
(S'0.05956471935853379152348224513'
p713
tp714
Rp715
sg15
I194
sg16
I00
sg17
g5
sg18
I1478269
sg19
I554422
sg20
I365038
sg21
I2101364
sg22
g5
sg23
S'mike.mcconnell@enron.com'
p716
sg25
g5
sg26
g11
(S'0.375'
p717
tp718
Rp719
sg30
I2189
sg31
g11
(S'0.000007937893917985680039371953833'
p720
tp721
Rp722
sg35
I1623010
sg36
I2742
sg37
I540
sg38
g5
ssS'PIRO JIM'
p723
(dp724
g3
I58
sg4
g5
sg6
g5
sg7
I47304
sg8
g5
sg9
I0
sg10
g11
(S'0.05956471935853379152348224513'
p725
tp726
Rp727
sg15
I1
sg16
I00
sg17
g5
sg18
I47304
sg19
g5
sg20
g5
sg21
g5
sg22
g5
sg23
S'jim.piro@enron.com'
p728
sg25
g5
sg26
g11
(S'0.375'
p729
tp730
Rp731
sg30
I3
sg31
g11
(S'0.000007937893917985680039371953833'
p732
tp733
Rp734
sg35
g5
sg36
I16
sg37
g5
sg38
g5
ssS'DELAINEY DAVID W'
p735
(dp736
g3
I3093
sg4
g5
sg6
I3000000
sg7
I3614261
sg8
I86174
sg9
I66
sg10
g11
(S'0.05956471935853379152348224513'
p737
tp738
Rp739
sg15
I609
sg16
I01
sg17
g5
sg18
I1323148
sg19
I1294981
sg20
I365163
sg21
I4747979
sg22
g5
sg23
S'david.delainey@enron.com'
p740
sg25
g5
sg26
g11
(S'0.375'
p741
tp742
Rp743
sg30
I2097
sg31
g11
(S'0.000007937893917985680039371953833'
p744
tp745
Rp746
sg35
I2291113
sg36
I3069
sg37
I1661
sg38
g5
ssS'SULLIVAN-SHAKLOVITZ COLLEEN'
p747
(dp748
g3
g5
sg4
I181993
sg6
I100000
sg7
I1362375
sg8
g5
sg9
g5
sg10
g11
(S'0.05956471935853379152348224513'
p749
tp750
Rp751
sg15
g5
sg16
I00
sg17
g5
sg18
g5
sg19
I554422
sg20
I162779
sg21
I999356
sg22
g5
sg23
g5
sg25
g5
sg26
g11
(S'0.375'
p752
tp753
Rp754
sg30
g5
sg31
g11
(S'0.000007937893917985680039371953833'
p755
tp756
Rp757
sg35
I1362375
sg36
g5
sg37
I162
sg38
g5
ssS'WROBEL BRUCE'
p758
(dp759
g3
g5
sg4
g5
sg6
g5
sg7
I139130
sg8
g5
sg9
g5
sg10
g11
(S'0.05956471935853379152348224513'
p760
tp761
Rp762
sg15
g5
sg16
I00
sg17
g5
sg18
g5
sg19
g5
sg20
g5
sg21
g5
sg22
g5
sg23
g5
sg25
g5
sg26
g11
(S'0.375'
p763
tp764
Rp765
sg30
g5
sg31
g11
(S'0.000007937893917985680039371953833'
p766
tp767
Rp768
sg35
I139130
sg36
g5
sg37
g5
sg38
g5
ssS'LINDHOLM TOD A'
p769
(dp770
g3
g5
sg4
I204075
sg6
I200000
sg7
I3064208
sg8
I57727
sg9
g5
sg10
g11
(S'0.05956471935853379152348224513'
p771
tp772
Rp773
sg15
g5
sg16
I00
sg17
g5
sg18
I514847
sg19
I175000
sg20
I236457
sg21
I875889
sg22
g5
sg23
S'tod.lindholm@enron.com'
p774
sg25
g5
sg26
g11
(S'0.375'
p775
tp776
Rp777
sg30
g5
sg31
g11
(S'0.000007937893917985680039371953833'
p778
tp779
Rp780
sg35
I2549361
sg36
g5
sg37
I2630
sg38
g5
ssS'MEYER JEROME J'
p781
(dp782
g3
g5
sg4
g5
sg6
g5
sg7
g5
sg8
I2151
sg9
g5
sg10
g11
(S'0.05956471935853379152348224513'
p783
tp784
Rp785
sg15
g5
sg16
I00
sg17
I-38346
sg18
g5
sg19
g5
sg20
g5
sg21
I2151
sg22
g5
sg23
g5
sg25
g5
sg26
g11
(S'0.375'
p786
tp787
Rp788
sg30
g5
sg31
g11
(S'0.000007937893917985680039371953833'
p789
tp790
Rp791
sg35
g5
sg36
g5
sg37
g5
sg38
I38346
ssS'LAY KENNETH L'
p792
(dp793
g3
I4273
sg4
I202911
sg6
I7000000
sg7
I49110078
sg8
I99832
sg9
I123
sg10
g11
(S'0.05956471935853379152348224513'
p794
tp795
Rp796
sg15
I16
sg16
I01
sg17
I-300000
sg18
I14761694
sg19
I3600000
sg20
I1072321
sg21
I103559793
sg22
I81525000
sg23
S'kenneth.lay@enron.com'
p797
sg25
g5
sg26
g11
(S'0.375'
p798
tp799
Rp800
sg30
I2411
sg31
g11
(S'0.000007937893917985680039371953833'
p801
tp802
Rp803
sg35
I34348384
sg36
I36
sg37
I10359729
sg38
g5
ssS'BUTTS ROBERT H'
p804
(dp805
g3
g5
sg4
g5
sg6
I750000
sg7
I417619
sg8
I9410
sg9
g5
sg10
g11
(S'0.05956471935853379152348224513'
p806
tp807
Rp808
sg15
g5
sg16
I00
sg17
I-75000
sg18
I417619
sg19
I175000
sg20
I261516
sg21
I1271582
sg22
g5
sg23
S'bob.butts@enron.com'
p809
sg25
g5
sg26
g11
(S'0.375'
p810
tp811
Rp812
sg30
g5
sg31
g11
(S'0.000007937893917985680039371953833'
p813
tp814
Rp815
sg35
g5
sg36
g5
sg37
I150656
sg38
g5
ssS'OLSON CINDY K'
p816
(dp817
g3
I1184
sg4
I77716
sg6
I750000
sg7
I2606763
sg8
I63791
sg9
I20
sg10
g11
(S'0.05956471935853379152348224513'
p818
tp819
Rp820
sg15
I15
sg16
I00
sg17
g5
sg18
I969729
sg19
I100000
sg20
I329078
sg21
I1321557
sg22
g5
sg23
S'cindy.olson@enron.com'
p821
sg25
g5
sg26
g11
(S'0.375'
p822
tp823
Rp824
sg30
I856
sg31
g11
(S'0.000007937893917985680039371953833'
p825
tp826
Rp827
sg35
I1637034
sg36
I52
sg37
I972
sg38
g5
ssS'MCDONALD REBECCA'
p828
(dp829
g3
I894
sg4
g5
sg6
g5
sg7
I1691366
sg8
g5
sg9
I54
sg10
g11
(S'0.05956471935853379152348224513'
p830
tp831
Rp832
sg15
I1
sg16
I00
sg17
g5
sg18
I934065
sg19
g5
sg20
g5
sg21
g5
sg22
g5
sg23
S'rebecca.mcdonald@enron.com'
p833
sg25
g5
sg26
g11
(S'0.375'
p834
tp835
Rp836
sg30
I720
sg31
g11
(S'0.000007937893917985680039371953833'
p837
tp838
Rp839
sg35
I757301
sg36
I13
sg37
g5
sg38
g5
ssS'CUMBERLAND MICHAEL S'
p840
(dp841
g3
g5
sg4
g5
sg6
I325000
sg7
I207940
sg8
I22344
sg9
g5
sg10
g11
(S'0.05956471935853379152348224513'
p842
tp843
Rp844
sg15
g5
sg16
I00
sg17
g5
sg18
I207940
sg19
I275000
sg20
I184899
sg21
I807956
sg22
g5
sg23
g5
sg25
g5
sg26
g11
(S'0.375'
p845
tp846
Rp847
sg30
g5
sg31
g11
(S'0.000007937893917985680039371953833'
p848
tp849
Rp850
sg35
g5
sg36
g5
sg37
I713
sg38
g5
ssS'GAHN ROBERT S'
p851
(dp852
g3
g5
sg4
I73122
sg6
I509870
sg7
I318607
sg8
I50080
sg9
g5
sg10
g11
(S'0.05956471935853379152348224513'
p853
tp854
Rp855
sg15
g5
sg16
I00
sg17
I-1042
sg18
I235370
sg19
g5
sg20
I192008
sg21
I900585
sg22
g5
sg23
g5
sg25
g5
sg26
g11
(S'0.375'
p856
tp857
Rp858
sg30
g5
sg31
g11
(S'0.000007937893917985680039371953833'
p859
tp860
Rp861
sg35
I83237
sg36
g5
sg37
I76547
sg38
g5
ssS'MCCLELLAN GEORGE'
p862
(dp863
g3
I1744
sg4
g5
sg6
I900000
sg7
I947861
sg8
I228763
sg9
I52
sg10
g11
(S'0.05956471935853379152348224513'
p864
tp865
Rp866
sg15
I0
sg16
I00
sg17
I-125000
sg18
I441096
sg19
g5
sg20
I263413
sg21
I1318763
sg22
g5
sg23
S'george.mcclellan@enron.com'
p867
sg25
g5
sg26
g11
(S'0.375'
p868
tp869
Rp870
sg30
I1469
sg31
g11
(S'0.000007937893917985680039371953833'
p871
tp872
Rp873
sg35
I506765
sg36
I49
sg37
I51587
sg38
g5
ssS'HERMANN ROBERT J'
p874
(dp875
g3
g5
sg4
g5
sg6
I700000
sg7
I668132
sg8
I48357
sg9
g5
sg10
g11
(S'0.05956471935853379152348224513'
p876
tp877
Rp878
sg15
g5
sg16
I00
sg17
I-280000
sg18
I480632
sg19
I150000
sg20
I262663
sg21
I1297461
sg22
g5
sg23
S'robert.hermann@enron.com'
p879
sg25
g5
sg26
g11
(S'0.375'
p880
tp881
Rp882
sg30
g5
sg31
g11
(S'0.000007937893917985680039371953833'
p883
tp884
Rp885
sg35
I187500
sg36
g5
sg37
I416441
sg38
g5
ssS'SCRIMSHAW MATTHEW'
p886
(dp887
g3
g5
sg4
g5
sg6
g5
sg7
I759557
sg8
g5
sg9
g5
sg10
g11
(S'0.05956471935853379152348224513'
p888
tp889
Rp890
sg15
g5
sg16
I00
sg17
g5
sg18
g5
sg19
g5
sg20
g5
sg21
g5
sg22
g5
sg23
S'matthew.scrimshaw@enron.com'
p891
sg25
g5
sg26
g11
(S'0.375'
p892
tp893
Rp894
sg30
g5
sg31
g11
(S'0.000007937893917985680039371953833'
p895
tp896
Rp897
sg35
I759557
sg36
g5
sg37
g5
sg38
g5
ssS'GATHMANN WILLIAM D'
p898
(dp899
g3
g5
sg4
g5
sg6
g5
sg7
I1945360
sg8
g5
sg9
g5
sg10
g11
(S'0.05956471935853379152348224513'
p900
tp901
Rp902
sg15
g5
sg16
I00
sg17
g5
sg18
I264013
sg19
g5
sg20
g5
sg21
g5
sg22
g5
sg23
g5
sg25
I-72419
sg26
g11
(S'0.375'
p903
tp904
Rp905
sg30
g5
sg31
g11
(S'0.000007937893917985680039371953833'
p906
tp907
Rp908
sg35
I1753766
sg36
g5
sg37
g5
sg38
g5
ssS'HAEDICKE MARK E'
p909
(dp910
g3
I4009
sg4
I2157527
sg6
I1150000
sg7
I803094
sg8
I76169
sg9
I180
sg10
g11
(S'0.05956471935853379152348224513'
p911
tp912
Rp913
sg15
I61
sg16
I00
sg17
I-934484
sg18
I524169
sg19
I983346
sg20
I374125
sg21
I3859065
sg22
g5
sg23
S'mark.haedicke@enron.com'
p914
sg25
I-329825
sg26
g11
(S'0.375'
p915
tp916
Rp917
sg30
I1847
sg31
g11
(S'0.000007937893917985680039371953833'
p918
tp919
Rp920
sg35
I608750
sg36
I1941
sg37
I52382
sg38
g5
ssS'BOWEN JR RAYMOND M'
p921
(dp922
g3
I1858
sg4
g5
sg6
I1350000
sg7
I252055
sg8
I65907
sg9
I140
sg10
g11
(S'0.05956471935853379152348224513'
p923
tp924
Rp925
sg15
I15
sg16
I01
sg17
I-833
sg18
I252055
sg19
I974293
sg20
I278601
sg21
I2669589
sg22
g5
sg23
S'raymond.bowen@enron.com'
p926
sg25
g5
sg26
g11
(S'0.375'
p927
tp928
Rp929
sg30
I1593
sg31
g11
(S'0.000007937893917985680039371953833'
p930
tp931
Rp932
sg35
g5
sg36
I27
sg37
I1621
sg38
g5
ssS'GILLIS JOHN'
p933
(dp934
g3
g5
sg4
g5
sg6
g5
sg7
I85641
sg8
g5
sg9
g5
sg10
g11
(S'0.05956471935853379152348224513'
p935
tp936
Rp937
sg15
g5
sg16
I00
sg17
g5
sg18
I75838
sg19
g5
sg20
g5
sg21
g5
sg22
g5
sg23
g5
sg25
g5
sg26
g11
(S'0.375'
p938
tp939
Rp940
sg30
g5
sg31
g11
(S'0.000007937893917985680039371953833'
p941
tp942
Rp943
sg35
I9803
sg36
g5
sg37
g5
sg38
g5
ssS'FITZGERALD JAY L'
p944
(dp945
g3
I936
sg4
g5
sg6
I350000
sg7
I1621236
sg8
I23870
sg9
I1
sg10
g11
(S'0.05956471935853379152348224513'
p946
tp947
Rp948
sg15
I8
sg16
I00
sg17
g5
sg18
I956775
sg19
I556416
sg20
I199157
sg21
I1414857
sg22
g5
sg23
S'jay.fitzgerald@enron.com'
p949
sg25
g5
sg26
g11
(S'0.375'
p950
tp951
Rp952
sg30
I723
sg31
g11
(S'0.000007937893917985680039371953833'
p953
tp954
Rp955
sg35
I664461
sg36
I16
sg37
I285414
sg38
g5
ssS'MORAN MICHAEL P'
p956
(dp957
g3
I672
sg4
g5
sg6
g5
sg7
I221141
sg8
g5
sg9
I0
sg10
g11
(S'0.05956471935853379152348224513'
p958
tp959
Rp960
sg15
I0
sg16
I00
sg17
g5
sg18
I161602
sg19
g5
sg20
g5
sg21
g5
sg22
g5
sg23
S'michael.moran@enron.com'
p961
sg25
g5
sg26
g11
(S'0.375'
p962
tp963
Rp964
sg30
I127
sg31
g11
(S'0.000007937893917985680039371953833'
p965
tp966
Rp967
sg35
I59539
sg36
I19
sg37
g5
sg38
g5
ssS'REDMOND BRIAN L'
p968
(dp969
g3
I1671
sg4
g5
sg6
g5
sg7
I7890324
sg8
I14689
sg9
I204
sg10
g11
(S'0.05956471935853379152348224513'
p970
tp971
Rp972
sg15
I49
sg16
I00
sg17
g5
sg18
I381285
sg19
g5
sg20
I96840
sg21
I111529
sg22
g5
sg23
S'brian.redmond@enron.com'
p973
sg25
g5
sg26
g11
(S'0.375'
p974
tp975
Rp976
sg30
I1063
sg31
g11
(S'0.000007937893917985680039371953833'
p977
tp978
Rp979
sg35
I7509039
sg36
I221
sg37
g5
sg38
g5
ssS'BAZELIDES PHILIP J'
p980
(dp981
g3
g5
sg4
I684694
sg6
g5
sg7
I1599641
sg8
g5
sg9
g5
sg10
g11
(S'0.05956471935853379152348224513'
p982
tp983
Rp984
sg15
g5
sg16
I00
sg17
g5
sg18
g5
sg19
I93750
sg20
I80818
sg21
I860136
sg22
g5
sg23
g5
sg25
g5
sg26
g11
(S'0.375'
p985
tp986
Rp987
sg30
g5
sg31
g11
(S'0.000007937893917985680039371953833'
p988
tp989
Rp990
sg35
I1599641
sg36
g5
sg37
I874
sg38
g5
ssS'BELDEN TIMOTHY N'
p991
(dp992
g3
I7991
sg4
I2144013
sg6
I5249999
sg7
I1110705
sg8
I17355
sg9
I228
sg10
g11
(S'0.05956471935853379152348224513'
p993
tp994
Rp995
sg15
I108
sg16
I01
sg17
I-2334434
sg18
I157569
sg19
g5
sg20
I213999
sg21
I5501630
sg22
g5
sg23
S'tim.belden@enron.com'
p996
sg25
g5
sg26
g11
(S'0.375'
p997
tp998
Rp999
sg30
I5521
sg31
g11
(S'0.000007937893917985680039371953833'
p1000
tp1001
Rp1002
sg35
I953136
sg36
I484
sg37
I210698
sg38
g5
ssS'DURAN WILLIAM D'
p1003
(dp1004
g3
I904
sg4
g5
sg6
I750000
sg7
I1640910
sg8
I25785
sg9
I106
sg10
g11
(S'0.05956471935853379152348224513'
p1005
tp1006
Rp1007
sg15
I3
sg16
I00
sg17
g5
sg18
I189041
sg19
I1105218
sg20
I210692
sg21
I2093263
sg22
g5
sg23
S'w.duran@enron.com'
p1008
sg25
g5
sg26
g11
(S'0.375'
p1009
tp1010
Rp1011
sg30
I599
sg31
g11
(S'0.000007937893917985680039371953833'
p1012
tp1013
Rp1014
sg35
I1451869
sg36
I12
sg37
I1568
sg38
g5
ssS'THORN TERENCE H'
p1015
(dp1016
g3
I266
sg4
I16586
sg6
g5
sg7
I4817796
sg8
I46145
sg9
I0
sg10
g11
(S'0.05956471935853379152348224513'
p1017
tp1018
Rp1019
sg15
I0
sg16
I00
sg17
g5
sg18
I365320
sg19
I200000
sg20
I222093
sg21
I911453
sg22
g5
sg23
S'terence.thorn@enron.com'
p1020
sg25
g5
sg26
g11
(S'0.375'
p1021
tp1022
Rp1023
sg30
I73
sg31
g11
(S'0.000007937893917985680039371953833'
p1024
tp1025
Rp1026
sg35
I4452476
sg36
I41
sg37
I426629
sg38
g5
ssS'FASTOW ANDREW S'
p1027
(dp1028
g3
g5
sg4
g5
sg6
I1300000
sg7
I1794412
sg8
I55921
sg9
g5
sg10
g11
(S'0.05956471935853379152348224513'
p1029
tp1030
Rp1031
sg15
g5
sg16
I01
sg17
I-1386055
sg18
I1794412
sg19
I1736055
sg20
I440698
sg21
I2424083
sg22
g5
sg23
S'andrew.fastow@enron.com'
p1032
sg25
g5
sg26
g11
(S'0.375'
p1033
tp1034
Rp1035
sg30
g5
sg31
g11
(S'0.000007937893917985680039371953833'
p1036
tp1037
Rp1038
sg35
g5
sg36
g5
sg37
I277464
sg38
g5
ssS'FOY JOE'
p1039
(dp1040
g3
I57
sg4
I181755
sg6
g5
sg7
I343434
sg8
g5
sg9
I0
sg10
g11
(S'0.05956471935853379152348224513'
p1041
tp1042
Rp1043
sg15
I0
sg16
I00
sg17
g5
sg18
g5
sg19
g5
sg20
g5
sg21
I181755
sg22
g5
sg23
S'tracy.foy@enron.com'
p1044
sg25
g5
sg26
g11
(S'0.375'
p1045
tp1046
Rp1047
sg30
I2
sg31
g11
(S'0.000007937893917985680039371953833'
p1048
tp1049
Rp1050
sg35
I343434
sg36
I13
sg37
g5
sg38
g5
ssS'CALGER CHRISTOPHER F'
p1051
(dp1052
g3
I2598
sg4
g5
sg6
I1250000
sg7
I126027
sg8
I35818
sg9
I199
sg10
g11
(S'0.05956471935853379152348224513'
p1053
tp1054
Rp1055
sg15
I25
sg16
I01
sg17
I-262500
sg18
I126027
sg19
I375304
sg20
I240189
sg21
I1639297
sg22
g5
sg23
S'christopher.calger@enron.com'
p1056
sg25
g5
sg26
g11
(S'0.375'
p1057
tp1058
Rp1059
sg30
I2188
sg31
g11
(S'0.000007937893917985680039371953833'
p1060
tp1061
Rp1062
sg35
g5
sg36
I144
sg37
I486
sg38
g5
ssS'RICE KENNETH D'
p1063
(dp1064
g3
I905
sg4
g5
sg6
I1750000
sg7
I22542539
sg8
I46950
sg9
I42
sg10
g11
(S'0.05956471935853379152348224513'
p1065
tp1066
Rp1067
sg15
I4
sg16
I01
sg17
I-3504386
sg18
I2748364
sg19
I1617011
sg20
I420636
sg21
I505050
sg22
g5
sg23
S'ken.rice@enron.com'
p1068
sg25
g5
sg26
g11
(S'0.375'
p1069
tp1070
Rp1071
sg30
I864
sg31
g11
(S'0.000007937893917985680039371953833'
p1072
tp1073
Rp1074
sg35
I19794175
sg36
I18
sg37
I174839
sg38
g5
ssS'KAMINSKI WINCENTY J'
p1075
(dp1076
g3
I4607
sg4
g5
sg6
I400000
sg7
I976037
sg8
I83585
sg9
I41
sg10
g11
(S'0.05956471935853379152348224513'
p1077
tp1078
Rp1079
sg15
I171
sg16
I00
sg17
g5
sg18
I126027
sg19
I323466
sg20
I275101
sg21
I1086821
sg22
g5
sg23
S'vince.kaminski@enron.com'
p1080
sg25
g5
sg26
g11
(S'0.375'
p1081
tp1082
Rp1083
sg30
I583
sg31
g11
(S'0.000007937893917985680039371953833'
p1084
tp1085
Rp1086
sg35
I850010
sg36
I14368
sg37
I4669
sg38
g5
ssS'LOCKHART EUGENE E'
p1087
(dp1088
g3
g5
sg4
g5
sg6
g5
sg7
g5
sg8
g5
sg9
g5
sg10
g11
(S'0.05956471935853379152348224513'
p1089
tp1090
Rp1091
sg15
g5
sg16
I00
sg17
g5
sg18
g5
sg19
g5
sg20
g5
sg21
g5
sg22
g5
sg23
g5
sg25
g5
sg26
g11
(S'0.375'
p1092
tp1093
Rp1094
sg30
g5
sg31
g11
(S'0.000007937893917985680039371953833'
p1095
tp1096
Rp1097
sg35
g5
sg36
g5
sg37
g5
sg38
g5
ssS'COX DAVID'
p1098
(dp1099
g3
I102
sg4
g5
sg6
I800000
sg7
I495633
sg8
I27861
sg9
I0
sg10
g11
(S'0.05956471935853379152348224513'
p1100
tp1101
Rp1102
sg15
I4
sg16
I00
sg17
I-41250
sg18
I378082
sg19
g5
sg20
I314288
sg21
I1101393
sg22
g5
sg23
S'chip.cox@enron.com'
p1103
sg25
g5
sg26
g11
(S'0.375'
p1104
tp1105
Rp1106
sg30
I71
sg31
g11
(S'0.000007937893917985680039371953833'
p1107
tp1108
Rp1109
sg35
I117551
sg36
I33
sg37
I494
sg38
g5
ssS'OVERDYKE JR JERE C'
p1110
(dp1111
g3
g5
sg4
g5
sg6
g5
sg7
I7307594
sg8
I18834
sg9
g5
sg10
g11
(S'0.05956471935853379152348224513'
p1112
tp1113
Rp1114
sg15
g5
sg16
I00
sg17
g5
sg18
I2041016
sg19
I135836
sg20
I94941
sg21
I249787
sg22
g5
sg23
S'jere.overdyke@enron.com'
p1115
sg25
g5
sg26
g11
(S'0.375'
p1116
tp1117
Rp1118
sg30
g5
sg31
g11
(S'0.000007937893917985680039371953833'
p1119
tp1120
Rp1121
sg35
I5266578
sg36
g5
sg37
I176
sg38
g5
ssS'PEREIRA PAULO V. FERRAZ'
p1122
(dp1123
g3
g5
sg4
g5
sg6
g5
sg7
g5
sg8
I27942
sg9
g5
sg10
g11
(S'0.05956471935853379152348224513'
p1124
tp1125
Rp1126
sg15
g5
sg16
I00
sg17
I-101250
sg18
g5
sg19
g5
sg20
g5
sg21
I27942
sg22
g5
sg23
g5
sg25
g5
sg26
g11
(S'0.375'
p1127
tp1128
Rp1129
sg30
g5
sg31
g11
(S'0.000007937893917985680039371953833'
p1130
tp1131
Rp1132
sg35
g5
sg36
g5
sg37
g5
sg38
I101250
ssS'STABLER FRANK'
p1133
(dp1134
g3
g5
sg4
g5
sg6
I500000
sg7
I511734
sg8
I16514
sg9
g5
sg10
g11
(S'0.05956471935853379152348224513'
p1135
tp1136
Rp1137
sg15
g5
sg16
I00
sg17
g5
sg18
I511734
sg19
g5
sg20
I239502
sg21
I1112087
sg22
g5
sg23
S'frank.stabler@enron.com'
p1138
sg25
g5
sg26
g11
(S'0.375'
p1139
tp1140
Rp1141
sg30
g5
sg31
g11
(S'0.000007937893917985680039371953833'
p1142
tp1143
Rp1144
sg35
g5
sg36
g5
sg37
I356071
sg38
g5
ssS'SKILLING JEFFREY K'
p1145
(dp1146
g3
I3627
sg4
g5
sg6
I5600000
sg7
I26093672
sg8
I29336
sg9
I88
sg10
g11
(S'0.05956471935853379152348224513'
p1147
tp1148
Rp1149
sg15
I30
sg16
I01
sg17
g5
sg18
I6843672
sg19
I1920000
sg20
I1111258
sg21
I8682716
sg22
g5
sg23
S'jeff.skilling@enron.com'
p1150
sg25
g5
sg26
g11
(S'0.375'
p1151
tp1152
Rp1153
sg30
I2042
sg31
g11
(S'0.000007937893917985680039371953833'
p1154
tp1155
Rp1156
sg35
I19250000
sg36
I108
sg37
I22122
sg38
g5
ssS'BLAKE JR. NORMAN P'
p1157
(dp1158
g3
g5
sg4
g5
sg6
g5
sg7
g5
sg8
I1279
sg9
g5
sg10
g11
(S'0.05956471935853379152348224513'
p1159
tp1160
Rp1161
sg15
g5
sg16
I00
sg17
I-113784
sg18
g5
sg19
g5
sg20
g5
sg21
I1279
sg22
g5
sg23
g5
sg25
g5
sg26
g11
(S'0.375'
p1162
tp1163
Rp1164
sg30
g5
sg31
g11
(S'0.000007937893917985680039371953833'
p1165
tp1166
Rp1167
sg35
g5
sg36
g5
sg37
g5
sg38
I113784
ssS'SHERRICK JEFFREY B'
p1168
(dp1169
g3
I613
sg4
g5
sg6
g5
sg7
I1832468
sg8
g5
sg9
I39
sg10
g11
(S'0.05956471935853379152348224513'
p1170
tp1171
Rp1172
sg15
I18
sg16
I00
sg17
g5
sg18
I405999
sg19
g5
sg20
g5
sg21
g5
sg22
g5
sg23
S'jeffrey.sherrick@enron.com'
p1173
sg25
g5
sg26
g11
(S'0.375'
p1174
tp1175
Rp1176
sg30
I583
sg31
g11
(S'0.000007937893917985680039371953833'
p1177
tp1178
Rp1179
sg35
I1426469
sg36
I25
sg37
g5
sg38
g5
ssS'PRENTICE JAMES'
p1180
(dp1181
g3
g5
sg4
I564348
sg6
g5
sg7
I1095040
sg8
g5
sg9
g5
sg10
g11
(S'0.05956471935853379152348224513'
p1182
tp1183
Rp1184
sg15
g5
sg16
I00
sg17
g5
sg18
I208809
sg19
g5
sg20
g5
sg21
I564348
sg22
g5
sg23
S'james.prentice@enron.com'
p1185
sg25
g5
sg26
g11
(S'0.375'
p1186
tp1187
Rp1188
sg30
g5
sg31
g11
(S'0.000007937893917985680039371953833'
p1189
tp1190
Rp1191
sg35
I886231
sg36
g5
sg37
g5
sg38
g5
ssS'GRAY RODNEY'
p1192
(dp1193
g3
g5
sg4
I93585
sg6
g5
sg7
g5
sg8
g5
sg9
g5
sg10
g11
(S'0.05956471935853379152348224513'
p1194
tp1195
Rp1196
sg15
g5
sg16
I00
sg17
g5
sg18
g5
sg19
I365625
sg20
I6615
sg21
I1146658
sg22
g5
sg23
g5
sg25
g5
sg26
g11
(S'0.375'
p1197
tp1198
Rp1199
sg30
g5
sg31
g11
(S'0.000007937893917985680039371953833'
p1200
tp1201
Rp1202
sg35
g5
sg36
g5
sg37
I680833
sg38
g5
ssS'PICKERING MARK R'
p1203
(dp1204
g3
I898
sg4
g5
sg6
I300000
sg7
I28798
sg8
I31653
sg9
I7
sg10
g11
(S'0.05956471935853379152348224513'
p1205
tp1206
Rp1207
sg15
I0
sg16
I00
sg17
g5
sg18
g5
sg19
g5
sg20
I655037
sg21
I1386690
sg22
I400000
sg23
S'mark.pickering@enron.com'
p1208
sg25
g5
sg26
g11
(S'0.375'
p1209
tp1210
Rp1211
sg30
I728
sg31
g11
(S'0.000007937893917985680039371953833'
p1212
tp1213
Rp1214
sg35
I28798
sg36
I67
sg37
g5
sg38
g5
ssS'THE TRAVEL AGENCY IN THE PARK'
p1215
(dp1216
g3
g5
sg4
g5
sg6
g5
sg7
g5
sg8
g5
sg9
g5
sg10
g11
(S'0.05956471935853379152348224513'
p1217
tp1218
Rp1219
sg15
g5
sg16
I00
sg17
g5
sg18
g5
sg19
g5
sg20
g5
sg21
I362096
sg22
g5
sg23
g5
sg25
g5
sg26
g11
(S'0.375'
p1220
tp1221
Rp1222
sg30
g5
sg31
g11
(S'0.000007937893917985680039371953833'
p1223
tp1224
Rp1225
sg35
g5
sg36
g5
sg37
I362096
sg38
g5
ssS'NOLES JAMES L'
p1226
(dp1227
g3
g5
sg4
I774401
sg6
g5
sg7
I368705
sg8
g5
sg9
g5
sg10
g11
(S'0.05956471935853379152348224513'
p1228
tp1229
Rp1230
sg15
g5
sg16
I00
sg17
g5
sg18
I463261
sg19
g5
sg20
g5
sg21
I774401
sg22
g5
sg23
g5
sg25
I-94556
sg26
g11
(S'0.375'
p1231
tp1232
Rp1233
sg30
g5
sg31
g11
(S'0.000007937893917985680039371953833'
p1234
tp1235
Rp1236
sg35
g5
sg36
g5
sg37
g5
sg38
g5
ssS'KEAN STEVEN J'
p1237
(dp1238
g3
I12754
sg4
g5
sg6
I1000000
sg7
I6153642
sg8
I41953
sg9
I140
sg10
g11
(S'0.05956471935853379152348224513'
p1239
tp1240
Rp1241
sg15
I387
sg16
I00
sg17
g5
sg18
I4131594
sg19
I300000
sg20
I404338
sg21
I1747522
sg22
g5
sg23
S'steven.kean@enron.com'
p1242
sg25
g5
sg26
g11
(S'0.375'
p1243
tp1244
Rp1245
sg30
I3639
sg31
g11
(S'0.000007937893917985680039371953833'
p1246
tp1247
Rp1248
sg35
I2022048
sg36
I6759
sg37
I1231
sg38
g5
ssS'TOTAL'
p1249
(dp1250
g3
g5
sg4
I32083396
sg6
I97343619
sg7
I434509511
sg8
I5235198
sg9
g5
sg10
g11
(S'0.05956471935853379152348224513'
p1251
tp1252
Rp1253
sg15
g5
sg16
I00
sg17
I-27992891
sg18
I130322299
sg19
I48521928
sg20
I26704229
sg21
I309886585
sg22
I83925000
sg23
g5
sg25
I-7576788
sg26
g11
(S'0.375'
p1254
tp1255
Rp1256
sg30
g5
sg31
g11
(S'0.000007937893917985680039371953833'
p1257
tp1258
Rp1259
sg35
I311764000
sg36
g5
sg37
I42667589
sg38
I1398517
ssS'FOWLER PEGGY'
p1260
(dp1261
g3
I517
sg4
g5
sg6
g5
sg7
I1884748
sg8
g5
sg9
I0
sg10
g11
(S'0.05956471935853379152348224513'
p1262
tp1263
Rp1264
sg15
I0
sg16
I00
sg17
g5
sg18
I560170
sg19
g5
sg20
g5
sg21
g5
sg22
g5
sg23
S'kulvinder.fowler@enron.com'
p1265
sg25
g5
sg26
g11
(S'0.375'
p1266
tp1267
Rp1268
sg30
I10
sg31
g11
(S'0.000007937893917985680039371953833'
p1269
tp1270
Rp1271
sg35
I1324578
sg36
I36
sg37
g5
sg38
g5
ssS'WASAFF GEORGE'
p1272
(dp1273
g3
I400
sg4
I831299
sg6
I325000
sg7
I2056427
sg8
g5
sg9
I22
sg10
g11
(S'0.05956471935853379152348224513'
p1274
tp1275
Rp1276
sg15
I7
sg16
I00
sg17
I-583325
sg18
I388167
sg19
I200000
sg20
I259996
sg21
I1034395
sg22
g5
sg23
S'george.wasaff@enron.com'
p1277
sg25
g5
sg26
g11
(S'0.375'
p1278
tp1279
Rp1280
sg30
I337
sg31
g11
(S'0.000007937893917985680039371953833'
p1281
tp1282
Rp1283
sg35
I1668260
sg36
I30
sg37
I1425
sg38
g5
ssS'WHITE JR THOMAS E'
p1284
(dp1285
g3
g5
sg4
g5
sg6
I450000
sg7
I15144123
sg8
I81353
sg9
g5
sg10
g11
(S'0.05956471935853379152348224513'
p1286
tp1287
Rp1288
sg15
g5
sg16
I00
sg17
g5
sg18
I13847074
sg19
g5
sg20
I317543
sg21
I1934359
sg22
g5
sg23
S'thomas.white@enron.com'
p1289
sg25
g5
sg26
g11
(S'0.375'
p1290
tp1291
Rp1292
sg30
g5
sg31
g11
(S'0.000007937893917985680039371953833'
p1293
tp1294
Rp1295
sg35
I1297049
sg36
g5
sg37
I1085463
sg38
g5
ssS'CHRISTODOULOU DIOMEDES'
p1296
(dp1297
g3
g5
sg4
g5
sg6
g5
sg7
I6077885
sg8
g5
sg9
g5
sg10
g11
(S'0.05956471935853379152348224513'
p1298
tp1299
Rp1300
sg15
g5
sg16
I00
sg17
g5
sg18
I950730
sg19
g5
sg20
g5
sg21
g5
sg22
g5
sg23
S'diomedes.christodoulou@enron.com'
p1301
sg25
g5
sg26
g11
(S'0.375'
p1302
tp1303
Rp1304
sg30
g5
sg31
g11
(S'0.000007937893917985680039371953833'
p1305
tp1306
Rp1307
sg35
I5127155
sg36
g5
sg37
g5
sg38
g5
ssS'ALLEN PHILLIP K'
p1308
(dp1309
g3
I2902
sg4
I2869717
sg6
I4175000
sg7
I1729541
sg8
I13868
sg9
I47
sg10
g11
(S'0.05956471935853379152348224513'
p1310
tp1311
Rp1312
sg15
I65
sg16
I00
sg17
I-3081055
sg18
I126027
sg19
I304805
sg20
I201955
sg21
I4484442
sg22
g5
sg23
S'phillip.allen@enron.com'
p1313
sg25
I-126027
sg26
g11
(S'0.375'
p1314
tp1315
Rp1316
sg30
I1407
sg31
g11
(S'0.000007937893917985680039371953833'
p1317
tp1318
Rp1319
sg35
I1729541
sg36
I2195
sg37
I152
sg38
g5
ssS'SHARP VICTORIA T'
p1320
(dp1321
g3
I3136
sg4
I187469
sg6
I600000
sg7
I494136
sg8
I116337
sg9
I24
sg10
g11
(S'0.05956471935853379152348224513'
p1322
tp1323
Rp1324
sg15
I6
sg16
I00
sg17
g5
sg18
I213063
sg19
I422158
sg20
I248146
sg21
I1576511
sg22
g5
sg23
S'vicki.sharp@enron.com'
p1325
sg25
g5
sg26
g11
(S'0.375'
p1326
tp1327
Rp1328
sg30
I2477
sg31
g11
(S'0.000007937893917985680039371953833'
p1329
tp1330
Rp1331
sg35
I281073
sg36
I136
sg37
I2401
sg38
g5
ssS'JAEDICKE ROBERT'
p1332
(dp1333
g3
g5
sg4
g5
sg6
g5
sg7
I431750
sg8
g5
sg9
g5
sg10
g11
(S'0.05956471935853379152348224513'
p1334
tp1335
Rp1336
sg15
g5
sg16
I00
sg17
I-25000
sg18
I44093
sg19
g5
sg20
g5
sg21
I83750
sg22
g5
sg23
g5
sg25
I-44093
sg26
g11
(S'0.375'
p1337
tp1338
Rp1339
sg30
g5
sg31
g11
(S'0.000007937893917985680039371953833'
p1340
tp1341
Rp1342
sg35
I431750
sg36
g5
sg37
g5
sg38
I108750
ssS'WINOKUR JR. HERBERT S'
p1343
(dp1344
g3
g5
sg4
g5
sg6
g5
sg7
g5
sg8
I1413
sg9
g5
sg10
g11
(S'0.05956471935853379152348224513'
p1345
tp1346
Rp1347
sg15
g5
sg16
I00
sg17
I-25000
sg18
g5
sg19
g5
sg20
g5
sg21
I84992
sg22
g5
sg23
g5
sg25
g5
sg26
g11
(S'0.375'
p1348
tp1349
Rp1350
sg30
g5
sg31
g11
(S'0.000007937893917985680039371953833'
p1351
tp1352
Rp1353
sg35
g5
sg36
g5
sg37
g5
sg38
I108579
ssS'BROWN MICHAEL'
p1354
(dp1355
g3
I1486
sg4
g5
sg6
g5
sg7
g5
sg8
I49288
sg9
I13
sg10
g11
(S'0.05956471935853379152348224513'
p1356
tp1357
Rp1358
sg15
I1
sg16
I00
sg17
g5
sg18
g5
sg19
g5
sg20
g5
sg21
I49288
sg22
g5
sg23
S'michael.brown@enron.com'
p1359
sg25
g5
sg26
g11
(S'0.375'
p1360
tp1361
Rp1362
sg30
I761
sg31
g11
(S'0.000007937893917985680039371953833'
p1363
tp1364
Rp1365
sg35
g5
sg36
I41
sg37
g5
sg38
g5
ssS'BADUM JAMES P'
p1366
(dp1367
g3
g5
sg4
I178980
sg6
g5
sg7
I257817
sg8
I3486
sg9
g5
sg10
g11
(S'0.05956471935853379152348224513'
p1368
tp1369
Rp1370
sg15
g5
sg16
I00
sg17
g5
sg18
g5
sg19
g5
sg20
g5
sg21
I182466
sg22
g5
sg23
g5
sg25
g5
sg26
g11
(S'0.375'
p1371
tp1372
Rp1373
sg30
g5
sg31
g11
(S'0.000007937893917985680039371953833'
p1374
tp1375
Rp1376
sg35
I257817
sg36
g5
sg37
g5
sg38
g5
ssS'HUGHES JAMES A'
p1377
(dp1378
g3
I719
sg4
g5
sg6
g5
sg7
I1118394
sg8
g5
sg9
I35
sg10
g11
(S'0.05956471935853379152348224513'
p1379
tp1380
Rp1381
sg15
I5
sg16
I00
sg17
g5
sg18
I363428
sg19
g5
sg20
g5
sg21
g5
sg22
g5
sg23
S'james.hughes@enron.com'
p1382
sg25
g5
sg26
g11
(S'0.375'
p1383
tp1384
Rp1385
sg30
I589
sg31
g11
(S'0.000007937893917985680039371953833'
p1386
tp1387
Rp1388
sg35
I754966
sg36
I34
sg37
g5
sg38
g5
ssS'REYNOLDS LAWRENCE'
p1389
(dp1390
g3
g5
sg4
I51365
sg6
I100000
sg7
I4221891
sg8
I8409
sg9
g5
sg10
g11
(S'0.05956471935853379152348224513'
p1391
tp1392
Rp1393
sg15
g5
sg16
I00
sg17
I-200000
sg18
I201483
sg19
I156250
sg20
I76399
sg21
I394475
sg22
g5
sg23
g5
sg25
I-140264
sg26
g11
(S'0.375'
p1394
tp1395
Rp1396
sg30
g5
sg31
g11
(S'0.000007937893917985680039371953833'
p1397
tp1398
Rp1399
sg35
I4160672
sg36
g5
sg37
I202052
sg38
g5
ssS'DIMICHELE RICHARD G'
p1400
(dp1401
g3
g5
sg4
g5
sg6
I1000000
sg7
I8317782
sg8
I35812
sg9
g5
sg10
g11
(S'0.05956471935853379152348224513'
p1402
tp1403
Rp1404
sg15
g5
sg16
I00
sg17
g5
sg18
I126027
sg19
I694862
sg20
I262788
sg21
I2368151
sg22
g5
sg23
S'richard.dimichele@enron.com'
p1405
sg25
g5
sg26
g11
(S'0.375'
p1406
tp1407
Rp1408
sg30
g5
sg31
g11
(S'0.000007937893917985680039371953833'
p1409
tp1410
Rp1411
sg35
I8191755
sg36
g5
sg37
I374689
sg38
g5
ssS'BHATNAGAR SANJAY'
p1412
(dp1413
g3
I523
sg4
g5
sg6
g5
sS'total_stock_value'
p1414
S'NaN'
p1415
sg8
g5
sg9
I0
sg10
g11
(S'0.05956471935853379152348224513'
p1416
tp1417
Rp1418
sg15
I1
sg16
I00
sg17
g5
sg18
I-2604490
sg19
g5
sg20
g5
sg21
I15456290
sg22
g5
sg23
S'sanjay.bhatnagar@enron.com'
p1419
sg25
I15456290
sg26
g11
(S'0.375'
p1420
tp1421
Rp1422
sg30
I463
sg31
g11
(S'0.000007937893917985680039371953833'
p1423
tp1424
Rp1425
sg35
I2604490
sg36
I29
sg37
I137864
sg38
I137864
ssS'CARTER REBECCA C'
p1426
(dp1427
g3
I312
sg4
g5
sg6
I300000
sg7
g5
sg8
g5
sg9
I29
sg10
g11
(S'0.05956471935853379152348224513'
p1428
tp1429
Rp1430
sg15
I7
sg16
I00
sg17
I-159792
sg18
I307301
sg19
I75000
sg20
I261809
sg21
I477557
sg22
g5
sg23
S'rebecca.carter@enron.com'
p1431
sg25
I-307301
sg26
g11
(S'0.375'
p1432
tp1433
Rp1434
sg30
I196
sg31
g11
(S'0.000007937893917985680039371953833'
p1435
tp1436
Rp1437
sg35
g5
sg36
I15
sg37
I540
sg38
g5
ssS'BUCHANAN HAROLD G'
p1438
(dp1439
g3
I1088
sg4
g5
sg6
I500000
sg7
I1014505
sg8
I600
sg9
I0
sg10
g11
(S'0.05956471935853379152348224513'
p1440
tp1441
Rp1442
sg15
I0
sg16
I00
sg17
g5
sg18
I189041
sg19
I304805
sg20
I248017
sg21
I1054637
sg22
g5
sg23
S'john.buchanan@enron.com'
p1443
sg25
g5
sg26
g11
(S'0.375'
p1444
tp1445
Rp1446
sg30
I23
sg31
g11
(S'0.000007937893917985680039371953833'
p1447
tp1448
Rp1449
sg35
I825464
sg36
I125
sg37
I1215
sg38
g5
ssS'YEAP SOON'
p1450
(dp1451
g3
g5
sg4
g5
sg6
g5
sg7
I192758
sg8
I55097
sg9
g5
sg10
g11
(S'0.05956471935853379152348224513'
p1452
tp1453
Rp1454
sg15
g5
sg16
I00
sg17
g5
sg18
g5
sg19
g5
sg20
g5
sg21
I55097
sg22
g5
sg23
g5
sg25
g5
sg26
g11
(S'0.375'
p1455
tp1456
Rp1457
sg30
g5
sg31
g11
(S'0.000007937893917985680039371953833'
p1458
tp1459
Rp1460
sg35
I192758
sg36
g5
sg37
g5
sg38
g5
ssS'MURRAY JULIA H'
p1461
(dp1462
g3
I2192
sg4
g5
sg6
I400000
sg7
I597461
sg8
I57580
sg9
I11
sg10
g11
(S'0.05956471935853379152348224513'
p1463
tp1464
Rp1465
sg15
I2
sg16
I00
sg17
g5
sg18
I196983
sg19
I125000
sg20
I229284
sg21
I812194
sg22
g5
sg23
S'julia.murray@enron.com'
p1466
sg25
g5
sg26
g11
(S'0.375'
p1467
tp1468
Rp1469
sg30
I395
sg31
g11
(S'0.000007937893917985680039371953833'
p1470
tp1471
Rp1472
sg35
I400478
sg36
I45
sg37
I330
sg38
g5
ssS'GARLAND C KEVIN'
p1473
(dp1474
g3
I209
sg4
g5
sg6
I850000
sg7
I896153
sg8
I48405
sg9
I10
sg10
g11
(S'0.05956471935853379152348224513'
p1475
tp1476
Rp1477
sg15
I27
sg16
I00
sg17
g5
sg18
I259907
sg19
I375304
sg20
I231946
sg21
I1566469
sg22
g5
sg23
S'kevin.garland@enron.com'
p1478
sg25
g5
sg26
g11
(S'0.375'
p1479
tp1480
Rp1481
sg30
I178
sg31
g11
(S'0.000007937893917985680039371953833'
p1482
tp1483
Rp1484
sg35
I636246
sg36
I44
sg37
I60814
sg38
g5
ssS'DODSON KEITH'
p1485
(dp1486
g3
I176
sg4
g5
sg6
I70000
sg7
g5
sg8
I28164
sg9
I10
sg10
g11
(S'0.05956471935853379152348224513'
p1487
tp1488
Rp1489
sg15
I3
sg16
I00
sg17
g5
sg18
g5
sg19
g5
sg20
I221003
sg21
I319941
sg22
g5
sg23
S'keith.dodson@enron.com'
p1490
sg25
g5
sg26
g11
(S'0.375'
p1491
tp1492
Rp1493
sg30
I114
sg31
g11
(S'0.000007937893917985680039371953833'
p1494
tp1495
Rp1496
sg35
g5
sg36
I14
sg37
I774
sg38
g5
ssS'YEAGER F SCOTT'
p1497
(dp1498
g3
g5
sg4
g5
sg6
g5
sg7
I11884758
sg8
I53947
sg9
g5
sg10
g11
(S'0.05956471935853379152348224513'
p1499
tp1500
Rp1501
sg15
g5
sg16
I01
sg17
g5
sg18
I3576206
sg19
g5
sg20
I158403
sg21
I360300
sg22
g5
sg23
S'scott.yeager@enron.com'
p1502
sg25
g5
sg26
g11
(S'0.375'
p1503
tp1504
Rp1505
sg30
g5
sg31
g11
(S'0.000007937893917985680039371953833'
p1506
tp1507
Rp1508
sg35
I8308552
sg36
g5
sg37
I147950
sg38
g5
ssS'HIRKO JOSEPH'
p1509
(dp1510
g3
g5
sg4
I10259
sg6
g5
sg7
I30766064
sg8
I77978
sg9
g5
sg10
g11
(S'0.05956471935853379152348224513'
p1511
tp1512
Rp1513
sg15
g5
sg16
I01
sg17
g5
sg18
g5
sg19
g5
sg20
g5
sg21
I91093
sg22
g5
sg23
S'joe.hirko@enron.com'
p1514
sg25
g5
sg26
g11
(S'0.375'
p1515
tp1516
Rp1517
sg30
g5
sg31
g11
(S'0.000007937893917985680039371953833'
p1518
tp1519
Rp1520
sg35
I30766064
sg36
g5
sg37
I2856
sg38
g5
ssS'DIETRICH JANET R'
p1521
(dp1522
g3
I2572
sg4
g5
sg6
I600000
sg7
I1865087
sg8
I3475
sg9
I305
sg10
g11
(S'0.05956471935853379152348224513'
p1523
tp1524
Rp1525
sg15
I14
sg16
I00
sg17
g5
sg18
I315068
sg19
I556416
sg20
I250100
sg21
I1410464
sg22
g5
sg23
S'janet.dietrich@enron.com'
p1526
sg25
g5
sg26
g11
(S'0.375'
p1527
tp1528
Rp1529
sg30
I1902
sg31
g11
(S'0.000007937893917985680039371953833'
p1530
tp1531
Rp1532
sg35
I1550019
sg36
I63
sg37
I473
sg38
g5
ssS'DERRICK JR. JAMES V'
p1533
(dp1534
g3
I2181
sg4
g5
sg6
I800000
sg7
I8831913
sg8
I51124
sg9
I64
sg10
g11
(S'0.05956471935853379152348224513'
p1535
tp1536
Rp1537
sg15
I20
sg16
I00
sg17
I-1284000
sg18
I1787380
sg19
I484000
sg20
I492375
sg21
I550981
sg22
g5
sg23
S'james.derrick@enron.com'
p1538
sg25
I-1787380
sg26
g11
(S'0.375'
p1539
tp1540
Rp1541
sg30
I1401
sg31
g11
(S'0.000007937893917985680039371953833'
p1542
tp1543
Rp1544
sg35
I8831913
sg36
I909
sg37
I7482
sg38
g5
ssS'FREVERT MARK A'
p1545
(dp1546
g3
I3275
sg4
I6426990
sg6
I2000000
sg7
I14622185
sg8
I86987
sg9
I242
sg10
g11
(S'0.05956471935853379152348224513'
p1547
tp1548
Rp1549
sg15
I6
sg16
I00
sg17
I-3367011
sg18
I4188667
sg19
I1617011
sg20
I1060932
sg21
I17252530
sg22
I2000000
sg23
S'mark.frevert@enron.com'
p1550
sg25
g5
sg26
g11
(S'0.375'
p1551
tp1552
Rp1553
sg30
I2979
sg31
g11
(S'0.000007937893917985680039371953833'
p1554
tp1555
Rp1556
sg35
I10433518
sg36
I21
sg37
I7427621
sg38
g5
ssS'PAI LOU L'
p1557
(dp1558
g3
g5
sg4
g5
sg6
I1000000
sg7
I23817930
sg8
I32047
sg9
g5
sg10
g11
(S'0.05956471935853379152348224513'
p1559
tp1560
Rp1561
sg15
g5
sg16
I00
sg17
g5
sg18
I8453763
sg19
g5
sg20
I261879
sg21
I3123383
sg22
g5
sg23
S'lou.pai@enron.com'
p1562
sg25
g5
sg26
g11
(S'0.375'
p1563
tp1564
Rp1565
sg30
g5
sg31
g11
(S'0.000007937893917985680039371953833'
p1566
tp1567
Rp1568
sg35
I15364167
sg36
g5
sg37
I1829457
sg38
g5
ssS'BAY FRANKLIN R'
p1569
(dp1570
g3
g5
sg4
I260455
sg6
I400000
sg7
I63014
sg8
I129142
sg9
g5
sg10
g11
(S'0.05956471935853379152348224513'
p1571
tp1572
Rp1573
sg15
g5
sg16
I00
sg17
I-201641
sg18
I145796
sg19
g5
sg20
I239671
sg21
I827696
sg22
g5
sg23
S'frank.bay@enron.com'
p1574
sg25
I-82782
sg26
g11
(S'0.375'
p1575
tp1576
Rp1577
sg30
g5
sg31
g11
(S'0.000007937893917985680039371953833'
p1578
tp1579
Rp1580
sg35
g5
sg36
g5
sg37
I69
sg38
g5
ssS'HAYSLETT RODERICK J'
p1581
(dp1582
g3
I2649
sg4
g5
sg6
g5
sg7
I346663
sg8
g5
sg9
I35
sg10
g11
(S'0.05956471935853379152348224513'
p1583
tp1584
Rp1585
sg15
I38
sg16
I00
sg17
g5
sg18
I346663
sg19
g5
sg20
g5
sg21
g5
sg22
g5
sg23
S'rod.hayslett@enron.com'
p1586
sg25
g5
sg26
g11
(S'0.375'
p1587
tp1588
Rp1589
sg30
I571
sg31
g11
(S'0.000007937893917985680039371953833'
p1590
tp1591
Rp1592
sg35
g5
sg36
I1061
sg37
g5
sg38
g5
ssS'FUGH JOHN L'
p1593
(dp1594
g3
g5
sg4
I50591
sg6
g5
sg7
I176378
sg8
g5
sg9
g5
sg10
g11
(S'0.05956471935853379152348224513'
p1595
tp1596
Rp1597
sg15
g5
sg16
I00
sg17
g5
sg18
g5
sg19
g5
sg20
g5
sg21
I50591
sg22
g5
sg23
g5
sg25
g5
sg26
g11
(S'0.375'
p1598
tp1599
Rp1600
sg30
g5
sg31
g11
(S'0.000007937893917985680039371953833'
p1601
tp1602
Rp1603
sg35
I176378
sg36
g5
sg37
g5
sg38
g5
ssS'FALLON JAMES B'
p1604
(dp1605
g3
I1755
sg4
g5
sg6
I2500000
sg7
I2332399
sg8
I95924
sg9
I42
sg10
g11
(S'0.05956471935853379152348224513'
p1606
tp1607
Rp1608
sg15
I37
sg16
I00
sg17
g5
sg18
I1392142
sg19
I374347
sg20
I304588
sg21
I3676340
sg22
g5
sg23
S'jim.fallon@enron.com'
p1609
sg25
g5
sg26
g11
(S'0.375'
p1610
tp1611
Rp1612
sg30
I1604
sg31
g11
(S'0.000007937893917985680039371953833'
p1613
tp1614
Rp1615
sg35
I940257
sg36
I75
sg37
I401481
sg38
g5
ssS'KOENIG MARK E'
p1616
(dp1617
g3
I2374
sg4
g5
sg6
I700000
sg7
I1920055
sg8
I127017
sg9
I53
sg10
g11
(S'0.05956471935853379152348224513'
p1618
tp1619
Rp1620
sg15
I15
sg16
I01
sg17
g5
sg18
I1248318
sg19
I300000
sg20
I309946
sg21
I1587421
sg22
g5
sg23
S'mark.koenig@enron.com'
p1621
sg25
g5
sg26
g11
(S'0.375'
p1622
tp1623
Rp1624
sg30
I2271
sg31
g11
(S'0.000007937893917985680039371953833'
p1625
tp1626
Rp1627
sg35
I671737
sg36
I61
sg37
I150458
sg38
g5
ssS'SAVAGE FRANK'
p1628
(dp1629
g3
g5
sg4
g5
sg6
g5
sg7
g5
sg8
g5
sg9
g5
sg10
g11
(S'0.05956471935853379152348224513'
p1630
tp1631
Rp1632
sg15
g5
sg16
I00
sg17
I-121284
sg18
g5
sg19
g5
sg20
g5
sg21
I3750
sg22
g5
sg23
g5
sg25
g5
sg26
g11
(S'0.375'
p1633
tp1634
Rp1635
sg30
g5
sg31
g11
(S'0.000007937893917985680039371953833'
p1636
tp1637
Rp1638
sg35
g5
sg36
g5
sg37
g5
sg38
I125034
ssS'IZZO LAWRENCE L'
p1639
(dp1640
g3
I496
sg4
g5
sg6
g5
sg7
I5819980
sg8
I28093
sg9
I28
sg10
g11
(S'0.05956471935853379152348224513'
p1641
tp1642
Rp1643
sg15
I5
sg16
I00
sg17
g5
sg18
I3654808
sg19
I312500
sg20
I85274
sg21
I1979596
sg22
g5
sg23
S'larry.izzo@enron.com'
p1644
sg25
g5
sg26
g11
(S'0.375'
p1645
tp1646
Rp1647
sg30
I437
sg31
g11
(S'0.000007937893917985680039371953833'
p1648
tp1649
Rp1650
sg35
I2165172
sg36
I19
sg37
I1553729
sg38
g5
ssS'TILNEY ELIZABETH A'
p1651
(dp1652
g3
I460
sg4
g5
sg6
I300000
sg7
I1168042
sg8
g5
sg9
I10
sg10
g11
(S'0.05956471935853379152348224513'
p1653
tp1654
Rp1655
sg15
I11
sg16
I00
sg17
I-575000
sg18
I576792
sg19
I275000
sg20
I247338
sg21
I399393
sg22
g5
sg23
S'elizabeth.tilney@enron.com'
p1656
sg25
g5
sg26
g11
(S'0.375'
p1657
tp1658
Rp1659
sg30
I379
sg31
g11
(S'0.000007937893917985680039371953833'
p1660
tp1661
Rp1662
sg35
I591250
sg36
I19
sg37
I152055
sg38
g5
ssS'MARTIN AMANDA K'
p1663
(dp1664
g3
I1522
sg4
I85430
sg6
g5
sg7
I2070306
sg8
I8211
sg9
I8
sg10
g11
(S'0.05956471935853379152348224513'
p1665
tp1666
Rp1667
sg15
I0
sg16
I00
sg17
g5
sg18
g5
sg19
I5145434
sg20
I349487
sg21
I8407016
sg22
g5
sg23
S'a..martin@enron.com'
p1668
sg25
g5
sg26
g11
(S'0.375'
p1669
tp1670
Rp1671
sg30
I477
sg31
g11
(S'0.000007937893917985680039371953833'
p1672
tp1673
Rp1674
sg35
I2070306
sg36
I230
sg37
I2818454
sg38
g5
ssS'BUY RICHARD B'
p1675
(dp1676
g3
I3523
sg4
I649584
sg6
I900000
sg7
I3444470
sg8
g5
sg9
I156
sg10
g11
(S'0.05956471935853379152348224513'
p1677
tp1678
Rp1679
sg15
I71
sg16
I00
sg17
I-694862
sg18
I901657
sg19
I769862
sg20
I330546
sg21
I2355702
sg22
g5
sg23
S'rick.buy@enron.com'
p1680
sg25
g5
sg26
g11
(S'0.375'
p1681
tp1682
Rp1683
sg30
I2333
sg31
g11
(S'0.000007937893917985680039371953833'
p1684
tp1685
Rp1686
sg35
I2542813
sg36
I1053
sg37
I400572
sg38
g5
ssS'GRAMM WENDY L'
p1687
(dp1688
g3
g5
sg4
g5
sg6
g5
sg7
g5
sg8
g5
sg9
g5
sg10
g11
(S'0.05956471935853379152348224513'
p1689
tp1690
Rp1691
sg15
g5
sg16
I00
sg17
g5
sg18
g5
sg19
g5
sg20
g5
sg21
I119292
sg22
g5
sg23
g5
sg25
g5
sg26
g11
(S'0.375'
p1692
tp1693
Rp1694
sg30
g5
sg31
g11
(S'0.000007937893917985680039371953833'
p1695
tp1696
Rp1697
sg35
g5
sg36
g5
sg37
g5
sg38
I119292
ssS'CAUSEY RICHARD A'
p1698
(dp1699
g3
I1892
sg4
g5
sg6
I1000000
sg7
I2502063
sg8
I30674
sg9
I58
sg10
g11
(S'0.05956471935853379152348224513'
p1700
tp1701
Rp1702
sg15
I12
sg16
I01
sg17
I-235000
sg18
I2502063
sg19
I350000
sg20
I415189
sg21
I1868758
sg22
g5
sg23
S'richard.causey@enron.com'
p1703
sg25
g5
sg26
g11
(S'0.375'
p1704
tp1705
Rp1706
sg30
I1585
sg31
g11
(S'0.000007937893917985680039371953833'
p1707
tp1708
Rp1709
sg35
g5
sg36
I49
sg37
I307895
sg38
g5
ssS'TAYLOR MITCHELL S'
p1710
(dp1711
g3
I533
sg4
I227449
sg6
I600000
sg7
I3745048
sg8
g5
sg9
I0
sg10
g11
(S'0.05956471935853379152348224513'
p1712
tp1713
Rp1714
sg15
I0
sg16
I00
sg17
g5
sg18
I563798
sg19
g5
sg20
I265214
sg21
I1092663
sg22
g5
sg23
S'mitchell.taylor@enron.com'
p1715
sg25
g5
sg26
g11
(S'0.375'
p1716
tp1717
Rp1718
sg30
I300
sg31
g11
(S'0.000007937893917985680039371953833'
p1719
tp1720
Rp1721
sg35
I3181250
sg36
I29
sg37
g5
sg38
g5
ssS'DONAHUE JR JEFFREY M'
p1722
(dp1723
g3
I865
sg4
g5
sg6
I800000
sg7
I1080988
sg8
I96268
sg9
I188
sg10
g11
(S'0.05956471935853379152348224513'
p1724
tp1725
Rp1726
sg15
I11
sg16
I00
sg17
I-300000
sg18
I315068
sg19
g5
sg20
I278601
sg21
I875760
sg22
g5
sg23
S'jeff.donahue@enron.com'
p1727
sg25
g5
sg26
g11
(S'0.375'
p1728
tp1729
Rp1730
sg30
I772
sg31
g11
(S'0.000007937893917985680039371953833'
p1731
tp1732
Rp1733
sg35
I765920
sg36
I22
sg37
I891
sg38
g5
ssS'GLISAN JR BEN F'
p1734
(dp1735
g3
I873
sg4
g5
sg6
I600000
sg7
I778546
sg8
I125978
sg9
I52
sg10
g11
(S'0.05956471935853379152348224513'
p1736
tp1737
Rp1738
sg15
I6
sg16
I01
sg17
g5
sg18
I393818
sg19
I71023
sg20
I274975
sg21
I1272284
sg22
g5
sg23
S'ben.glisan@enron.com'
p1739
sg25
g5
sg26
g11
(S'0.375'
p1740
tp1741
Rp1742
sg30
I874
sg31
g11
(S'0.000007937893917985680039371953833'
p1743
tp1744
Rp1745
sg35
I384728
sg36
I16
sg37
I200308
sg38
g5
ss.