(lp0
S'poi'
p1
aS'restricted_stock'
p2
aS'salary'
p3
aS'bonus'
p4
aS'total_stock_value'
p5
aS'shared_receipt_with_poi'
p6
aS'ratio_of_sent_messages'
p7
aS'ratio_of_recievedmsgs'
p8
aS'inverse_expenses'
p9
a.